
64_HAL_LCD.elf:     file format elf32-littlearm

Sections:
Idx Name          Size      VMA       LMA       File off  Algn
  0 .isr_vector   000001c8  08000000  08000000  00010000  2**0
                  CONTENTS, ALLOC, LOAD, READONLY, DATA
  1 .text         00001b2c  080001c8  080001c8  000101c8  2**2
                  CONTENTS, ALLOC, LOAD, READONLY, CODE
  2 .rodata       00000010  08001cf4  08001cf4  00011cf4  2**2
                  CONTENTS, ALLOC, LOAD, READONLY, DATA
  3 .ARM.extab    00000000  08001d04  08001d04  0002000c  2**0
                  CONTENTS
  4 .ARM          00000008  08001d04  08001d04  00011d04  2**2
                  CONTENTS, ALLOC, LOAD, READONLY, DATA
  5 .preinit_array 00000000  08001d0c  08001d0c  0002000c  2**0
                  CONTENTS, ALLOC, LOAD, DATA
  6 .init_array   00000004  08001d0c  08001d0c  00011d0c  2**2
                  CONTENTS, ALLOC, LOAD, DATA
  7 .fini_array   00000004  08001d10  08001d10  00011d10  2**2
                  CONTENTS, ALLOC, LOAD, DATA
  8 .data         0000000c  20000000  08001d14  00020000  2**2
                  CONTENTS, ALLOC, LOAD, DATA
  9 .bss          000000d8  2000000c  08001d20  0002000c  2**2
                  ALLOC
 10 ._user_heap_stack 00006004  200000e4  08001d20  000200e4  2**0
                  ALLOC
 11 .ARM.attributes 00000030  00000000  00000000  0002000c  2**0
                  CONTENTS, READONLY
 12 .comment      00000053  00000000  00000000  0002003c  2**0
                  CONTENTS, READONLY
 13 .debug_frame  000000ac  00000000  00000000  00020090  2**2
                  CONTENTS, READONLY, DEBUGGING, OCTETS

Disassembly of section .text:

080001c8 <__do_global_dtors_aux>:
 80001c8:	b510      	push	{r4, lr}
 80001ca:	4c05      	ldr	r4, [pc, #20]	; (80001e0 <__do_global_dtors_aux+0x18>)
 80001cc:	7823      	ldrb	r3, [r4, #0]
 80001ce:	b933      	cbnz	r3, 80001de <__do_global_dtors_aux+0x16>
 80001d0:	4b04      	ldr	r3, [pc, #16]	; (80001e4 <__do_global_dtors_aux+0x1c>)
 80001d2:	b113      	cbz	r3, 80001da <__do_global_dtors_aux+0x12>
 80001d4:	4804      	ldr	r0, [pc, #16]	; (80001e8 <__do_global_dtors_aux+0x20>)
 80001d6:	f3af 8000 	nop.w
 80001da:	2301      	movs	r3, #1
 80001dc:	7023      	strb	r3, [r4, #0]
 80001de:	bd10      	pop	{r4, pc}
 80001e0:	2000000c 	.word	0x2000000c
 80001e4:	00000000 	.word	0x00000000
 80001e8:	08001cdc 	.word	0x08001cdc

080001ec <frame_dummy>:
 80001ec:	b508      	push	{r3, lr}
 80001ee:	4b03      	ldr	r3, [pc, #12]	; (80001fc <frame_dummy+0x10>)
 80001f0:	b11b      	cbz	r3, 80001fa <frame_dummy+0xe>
 80001f2:	4903      	ldr	r1, [pc, #12]	; (8000200 <frame_dummy+0x14>)
 80001f4:	4803      	ldr	r0, [pc, #12]	; (8000204 <frame_dummy+0x18>)
 80001f6:	f3af 8000 	nop.w
 80001fa:	bd08      	pop	{r3, pc}
 80001fc:	00000000 	.word	0x00000000
 8000200:	20000010 	.word	0x20000010
 8000204:	08001cdc 	.word	0x08001cdc

08000208 <__aeabi_uldivmod>:
 8000208:	b953      	cbnz	r3, 8000220 <__aeabi_uldivmod+0x18>
 800020a:	b94a      	cbnz	r2, 8000220 <__aeabi_uldivmod+0x18>
 800020c:	2900      	cmp	r1, #0
 800020e:	bf08      	it	eq
 8000210:	2800      	cmpeq	r0, #0
 8000212:	bf1c      	itt	ne
 8000214:	f04f 31ff 	movne.w	r1, #4294967295	; 0xffffffff
 8000218:	f04f 30ff 	movne.w	r0, #4294967295	; 0xffffffff
 800021c:	f000 b96e 	b.w	80004fc <__aeabi_idiv0>
 8000220:	f1ad 0c08 	sub.w	ip, sp, #8
 8000224:	e96d ce04 	strd	ip, lr, [sp, #-16]!
 8000228:	f000 f806 	bl	8000238 <__udivmoddi4>
 800022c:	f8dd e004 	ldr.w	lr, [sp, #4]
 8000230:	e9dd 2302 	ldrd	r2, r3, [sp, #8]
 8000234:	b004      	add	sp, #16
 8000236:	4770      	bx	lr

08000238 <__udivmoddi4>:
 8000238:	e92d 47f0 	stmdb	sp!, {r4, r5, r6, r7, r8, r9, sl, lr}
 800023c:	9d08      	ldr	r5, [sp, #32]
 800023e:	4604      	mov	r4, r0
 8000240:	468c      	mov	ip, r1
 8000242:	2b00      	cmp	r3, #0
 8000244:	f040 8083 	bne.w	800034e <__udivmoddi4+0x116>
 8000248:	428a      	cmp	r2, r1
 800024a:	4617      	mov	r7, r2
 800024c:	d947      	bls.n	80002de <__udivmoddi4+0xa6>
 800024e:	fab2 f282 	clz	r2, r2
 8000252:	b142      	cbz	r2, 8000266 <__udivmoddi4+0x2e>
 8000254:	f1c2 0020 	rsb	r0, r2, #32
 8000258:	fa24 f000 	lsr.w	r0, r4, r0
 800025c:	4091      	lsls	r1, r2
 800025e:	4097      	lsls	r7, r2
 8000260:	ea40 0c01 	orr.w	ip, r0, r1
 8000264:	4094      	lsls	r4, r2
 8000266:	ea4f 4817 	mov.w	r8, r7, lsr #16
 800026a:	0c23      	lsrs	r3, r4, #16
 800026c:	fbbc f6f8 	udiv	r6, ip, r8
 8000270:	fa1f fe87 	uxth.w	lr, r7
 8000274:	fb08 c116 	mls	r1, r8, r6, ip
 8000278:	ea43 4301 	orr.w	r3, r3, r1, lsl #16
 800027c:	fb06 f10e 	mul.w	r1, r6, lr
 8000280:	4299      	cmp	r1, r3
 8000282:	d909      	bls.n	8000298 <__udivmoddi4+0x60>
 8000284:	18fb      	adds	r3, r7, r3
 8000286:	f106 30ff 	add.w	r0, r6, #4294967295	; 0xffffffff
 800028a:	f080 8119 	bcs.w	80004c0 <__udivmoddi4+0x288>
 800028e:	4299      	cmp	r1, r3
 8000290:	f240 8116 	bls.w	80004c0 <__udivmoddi4+0x288>
 8000294:	3e02      	subs	r6, #2
 8000296:	443b      	add	r3, r7
 8000298:	1a5b      	subs	r3, r3, r1
 800029a:	b2a4      	uxth	r4, r4
 800029c:	fbb3 f0f8 	udiv	r0, r3, r8
 80002a0:	fb08 3310 	mls	r3, r8, r0, r3
 80002a4:	ea44 4403 	orr.w	r4, r4, r3, lsl #16
 80002a8:	fb00 fe0e 	mul.w	lr, r0, lr
 80002ac:	45a6      	cmp	lr, r4
 80002ae:	d909      	bls.n	80002c4 <__udivmoddi4+0x8c>
 80002b0:	193c      	adds	r4, r7, r4
 80002b2:	f100 33ff 	add.w	r3, r0, #4294967295	; 0xffffffff
 80002b6:	f080 8105 	bcs.w	80004c4 <__udivmoddi4+0x28c>
 80002ba:	45a6      	cmp	lr, r4
 80002bc:	f240 8102 	bls.w	80004c4 <__udivmoddi4+0x28c>
 80002c0:	3802      	subs	r0, #2
 80002c2:	443c      	add	r4, r7
 80002c4:	ea40 4006 	orr.w	r0, r0, r6, lsl #16
 80002c8:	eba4 040e 	sub.w	r4, r4, lr
 80002cc:	2600      	movs	r6, #0
 80002ce:	b11d      	cbz	r5, 80002d8 <__udivmoddi4+0xa0>
 80002d0:	40d4      	lsrs	r4, r2
 80002d2:	2300      	movs	r3, #0
 80002d4:	e9c5 4300 	strd	r4, r3, [r5]
 80002d8:	4631      	mov	r1, r6
 80002da:	e8bd 87f0 	ldmia.w	sp!, {r4, r5, r6, r7, r8, r9, sl, pc}
 80002de:	b902      	cbnz	r2, 80002e2 <__udivmoddi4+0xaa>
 80002e0:	deff      	udf	#255	; 0xff
 80002e2:	fab2 f282 	clz	r2, r2
 80002e6:	2a00      	cmp	r2, #0
 80002e8:	d150      	bne.n	800038c <__udivmoddi4+0x154>
 80002ea:	1bcb      	subs	r3, r1, r7
 80002ec:	ea4f 4e17 	mov.w	lr, r7, lsr #16
 80002f0:	fa1f f887 	uxth.w	r8, r7
 80002f4:	2601      	movs	r6, #1
 80002f6:	fbb3 fcfe 	udiv	ip, r3, lr
 80002fa:	0c21      	lsrs	r1, r4, #16
 80002fc:	fb0e 331c 	mls	r3, lr, ip, r3
 8000300:	ea41 4103 	orr.w	r1, r1, r3, lsl #16
 8000304:	fb08 f30c 	mul.w	r3, r8, ip
 8000308:	428b      	cmp	r3, r1
 800030a:	d907      	bls.n	800031c <__udivmoddi4+0xe4>
 800030c:	1879      	adds	r1, r7, r1
 800030e:	f10c 30ff 	add.w	r0, ip, #4294967295	; 0xffffffff
 8000312:	d202      	bcs.n	800031a <__udivmoddi4+0xe2>
 8000314:	428b      	cmp	r3, r1
 8000316:	f200 80e9 	bhi.w	80004ec <__udivmoddi4+0x2b4>
 800031a:	4684      	mov	ip, r0
 800031c:	1ac9      	subs	r1, r1, r3
 800031e:	b2a3      	uxth	r3, r4
 8000320:	fbb1 f0fe 	udiv	r0, r1, lr
 8000324:	fb0e 1110 	mls	r1, lr, r0, r1
 8000328:	ea43 4401 	orr.w	r4, r3, r1, lsl #16
 800032c:	fb08 f800 	mul.w	r8, r8, r0
 8000330:	45a0      	cmp	r8, r4
 8000332:	d907      	bls.n	8000344 <__udivmoddi4+0x10c>
 8000334:	193c      	adds	r4, r7, r4
 8000336:	f100 33ff 	add.w	r3, r0, #4294967295	; 0xffffffff
 800033a:	d202      	bcs.n	8000342 <__udivmoddi4+0x10a>
 800033c:	45a0      	cmp	r8, r4
 800033e:	f200 80d9 	bhi.w	80004f4 <__udivmoddi4+0x2bc>
 8000342:	4618      	mov	r0, r3
 8000344:	eba4 0408 	sub.w	r4, r4, r8
 8000348:	ea40 400c 	orr.w	r0, r0, ip, lsl #16
 800034c:	e7bf      	b.n	80002ce <__udivmoddi4+0x96>
 800034e:	428b      	cmp	r3, r1
 8000350:	d909      	bls.n	8000366 <__udivmoddi4+0x12e>
 8000352:	2d00      	cmp	r5, #0
 8000354:	f000 80b1 	beq.w	80004ba <__udivmoddi4+0x282>
 8000358:	2600      	movs	r6, #0
 800035a:	e9c5 0100 	strd	r0, r1, [r5]
 800035e:	4630      	mov	r0, r6
 8000360:	4631      	mov	r1, r6
 8000362:	e8bd 87f0 	ldmia.w	sp!, {r4, r5, r6, r7, r8, r9, sl, pc}
 8000366:	fab3 f683 	clz	r6, r3
 800036a:	2e00      	cmp	r6, #0
 800036c:	d14a      	bne.n	8000404 <__udivmoddi4+0x1cc>
 800036e:	428b      	cmp	r3, r1
 8000370:	d302      	bcc.n	8000378 <__udivmoddi4+0x140>
 8000372:	4282      	cmp	r2, r0
 8000374:	f200 80b8 	bhi.w	80004e8 <__udivmoddi4+0x2b0>
 8000378:	1a84      	subs	r4, r0, r2
 800037a:	eb61 0103 	sbc.w	r1, r1, r3
 800037e:	2001      	movs	r0, #1
 8000380:	468c      	mov	ip, r1
 8000382:	2d00      	cmp	r5, #0
 8000384:	d0a8      	beq.n	80002d8 <__udivmoddi4+0xa0>
 8000386:	e9c5 4c00 	strd	r4, ip, [r5]
 800038a:	e7a5      	b.n	80002d8 <__udivmoddi4+0xa0>
 800038c:	f1c2 0320 	rsb	r3, r2, #32
 8000390:	fa20 f603 	lsr.w	r6, r0, r3
 8000394:	4097      	lsls	r7, r2
 8000396:	fa01 f002 	lsl.w	r0, r1, r2
 800039a:	ea4f 4e17 	mov.w	lr, r7, lsr #16
 800039e:	40d9      	lsrs	r1, r3
 80003a0:	4330      	orrs	r0, r6
 80003a2:	0c03      	lsrs	r3, r0, #16
 80003a4:	fbb1 f6fe 	udiv	r6, r1, lr
 80003a8:	fa1f f887 	uxth.w	r8, r7
 80003ac:	fb0e 1116 	mls	r1, lr, r6, r1
 80003b0:	ea43 4301 	orr.w	r3, r3, r1, lsl #16
 80003b4:	fb06 f108 	mul.w	r1, r6, r8
 80003b8:	4299      	cmp	r1, r3
 80003ba:	fa04 f402 	lsl.w	r4, r4, r2
 80003be:	d909      	bls.n	80003d4 <__udivmoddi4+0x19c>
 80003c0:	18fb      	adds	r3, r7, r3
 80003c2:	f106 3cff 	add.w	ip, r6, #4294967295	; 0xffffffff
 80003c6:	f080 808d 	bcs.w	80004e4 <__udivmoddi4+0x2ac>
 80003ca:	4299      	cmp	r1, r3
 80003cc:	f240 808a 	bls.w	80004e4 <__udivmoddi4+0x2ac>
 80003d0:	3e02      	subs	r6, #2
 80003d2:	443b      	add	r3, r7
 80003d4:	1a5b      	subs	r3, r3, r1
 80003d6:	b281      	uxth	r1, r0
 80003d8:	fbb3 f0fe 	udiv	r0, r3, lr
 80003dc:	fb0e 3310 	mls	r3, lr, r0, r3
 80003e0:	ea41 4103 	orr.w	r1, r1, r3, lsl #16
 80003e4:	fb00 f308 	mul.w	r3, r0, r8
 80003e8:	428b      	cmp	r3, r1
 80003ea:	d907      	bls.n	80003fc <__udivmoddi4+0x1c4>
 80003ec:	1879      	adds	r1, r7, r1
 80003ee:	f100 3cff 	add.w	ip, r0, #4294967295	; 0xffffffff
 80003f2:	d273      	bcs.n	80004dc <__udivmoddi4+0x2a4>
 80003f4:	428b      	cmp	r3, r1
 80003f6:	d971      	bls.n	80004dc <__udivmoddi4+0x2a4>
 80003f8:	3802      	subs	r0, #2
 80003fa:	4439      	add	r1, r7
 80003fc:	1acb      	subs	r3, r1, r3
 80003fe:	ea40 4606 	orr.w	r6, r0, r6, lsl #16
 8000402:	e778      	b.n	80002f6 <__udivmoddi4+0xbe>
 8000404:	f1c6 0c20 	rsb	ip, r6, #32
 8000408:	fa03 f406 	lsl.w	r4, r3, r6
 800040c:	fa22 f30c 	lsr.w	r3, r2, ip
 8000410:	431c      	orrs	r4, r3
 8000412:	fa20 f70c 	lsr.w	r7, r0, ip
 8000416:	fa01 f306 	lsl.w	r3, r1, r6
 800041a:	ea4f 4e14 	mov.w	lr, r4, lsr #16
 800041e:	fa21 f10c 	lsr.w	r1, r1, ip
 8000422:	431f      	orrs	r7, r3
 8000424:	0c3b      	lsrs	r3, r7, #16
 8000426:	fbb1 f9fe 	udiv	r9, r1, lr
 800042a:	fa1f f884 	uxth.w	r8, r4
 800042e:	fb0e 1119 	mls	r1, lr, r9, r1
 8000432:	ea43 4101 	orr.w	r1, r3, r1, lsl #16
 8000436:	fb09 fa08 	mul.w	sl, r9, r8
 800043a:	458a      	cmp	sl, r1
 800043c:	fa02 f206 	lsl.w	r2, r2, r6
 8000440:	fa00 f306 	lsl.w	r3, r0, r6
 8000444:	d908      	bls.n	8000458 <__udivmoddi4+0x220>
 8000446:	1861      	adds	r1, r4, r1
 8000448:	f109 30ff 	add.w	r0, r9, #4294967295	; 0xffffffff
 800044c:	d248      	bcs.n	80004e0 <__udivmoddi4+0x2a8>
 800044e:	458a      	cmp	sl, r1
 8000450:	d946      	bls.n	80004e0 <__udivmoddi4+0x2a8>
 8000452:	f1a9 0902 	sub.w	r9, r9, #2
 8000456:	4421      	add	r1, r4
 8000458:	eba1 010a 	sub.w	r1, r1, sl
 800045c:	b2bf      	uxth	r7, r7
 800045e:	fbb1 f0fe 	udiv	r0, r1, lr
 8000462:	fb0e 1110 	mls	r1, lr, r0, r1
 8000466:	ea47 4701 	orr.w	r7, r7, r1, lsl #16
 800046a:	fb00 f808 	mul.w	r8, r0, r8
 800046e:	45b8      	cmp	r8, r7
 8000470:	d907      	bls.n	8000482 <__udivmoddi4+0x24a>
 8000472:	19e7      	adds	r7, r4, r7
 8000474:	f100 31ff 	add.w	r1, r0, #4294967295	; 0xffffffff
 8000478:	d22e      	bcs.n	80004d8 <__udivmoddi4+0x2a0>
 800047a:	45b8      	cmp	r8, r7
 800047c:	d92c      	bls.n	80004d8 <__udivmoddi4+0x2a0>
 800047e:	3802      	subs	r0, #2
 8000480:	4427      	add	r7, r4
 8000482:	ea40 4009 	orr.w	r0, r0, r9, lsl #16
 8000486:	eba7 0708 	sub.w	r7, r7, r8
 800048a:	fba0 8902 	umull	r8, r9, r0, r2
 800048e:	454f      	cmp	r7, r9
 8000490:	46c6      	mov	lr, r8
 8000492:	4649      	mov	r1, r9
 8000494:	d31a      	bcc.n	80004cc <__udivmoddi4+0x294>
 8000496:	d017      	beq.n	80004c8 <__udivmoddi4+0x290>
 8000498:	b15d      	cbz	r5, 80004b2 <__udivmoddi4+0x27a>
 800049a:	ebb3 020e 	subs.w	r2, r3, lr
 800049e:	eb67 0701 	sbc.w	r7, r7, r1
 80004a2:	fa07 fc0c 	lsl.w	ip, r7, ip
 80004a6:	40f2      	lsrs	r2, r6
 80004a8:	ea4c 0202 	orr.w	r2, ip, r2
 80004ac:	40f7      	lsrs	r7, r6
 80004ae:	e9c5 2700 	strd	r2, r7, [r5]
 80004b2:	2600      	movs	r6, #0
 80004b4:	4631      	mov	r1, r6
 80004b6:	e8bd 87f0 	ldmia.w	sp!, {r4, r5, r6, r7, r8, r9, sl, pc}
 80004ba:	462e      	mov	r6, r5
 80004bc:	4628      	mov	r0, r5
 80004be:	e70b      	b.n	80002d8 <__udivmoddi4+0xa0>
 80004c0:	4606      	mov	r6, r0
 80004c2:	e6e9      	b.n	8000298 <__udivmoddi4+0x60>
 80004c4:	4618      	mov	r0, r3
 80004c6:	e6fd      	b.n	80002c4 <__udivmoddi4+0x8c>
 80004c8:	4543      	cmp	r3, r8
 80004ca:	d2e5      	bcs.n	8000498 <__udivmoddi4+0x260>
 80004cc:	ebb8 0e02 	subs.w	lr, r8, r2
 80004d0:	eb69 0104 	sbc.w	r1, r9, r4
 80004d4:	3801      	subs	r0, #1
 80004d6:	e7df      	b.n	8000498 <__udivmoddi4+0x260>
 80004d8:	4608      	mov	r0, r1
 80004da:	e7d2      	b.n	8000482 <__udivmoddi4+0x24a>
 80004dc:	4660      	mov	r0, ip
 80004de:	e78d      	b.n	80003fc <__udivmoddi4+0x1c4>
 80004e0:	4681      	mov	r9, r0
 80004e2:	e7b9      	b.n	8000458 <__udivmoddi4+0x220>
 80004e4:	4666      	mov	r6, ip
 80004e6:	e775      	b.n	80003d4 <__udivmoddi4+0x19c>
 80004e8:	4630      	mov	r0, r6
 80004ea:	e74a      	b.n	8000382 <__udivmoddi4+0x14a>
 80004ec:	f1ac 0c02 	sub.w	ip, ip, #2
 80004f0:	4439      	add	r1, r7
 80004f2:	e713      	b.n	800031c <__udivmoddi4+0xe4>
 80004f4:	3802      	subs	r0, #2
 80004f6:	443c      	add	r4, r7
 80004f8:	e724      	b.n	8000344 <__udivmoddi4+0x10c>
 80004fa:	bf00      	nop

080004fc <__aeabi_idiv0>:
 80004fc:	4770      	bx	lr
 80004fe:	bf00      	nop

08000500 <SystemClock_Config>:
 8000500:	b570      	push	{r4, r5, r6, lr}
 8000502:	2300      	movs	r3, #0
 8000504:	b094      	sub	sp, #80	; 0x50
 8000506:	4a27      	ldr	r2, [pc, #156]	; (80005a4 <SystemClock_Config+0xa4>)
 8000508:	f44f 3080 	mov.w	r0, #65536	; 0x10000
 800050c:	930b      	str	r3, [sp, #44]	; 0x2c
 800050e:	2402      	movs	r4, #2
 8000510:	930a      	str	r3, [sp, #40]	; 0x28
 8000512:	2501      	movs	r5, #1
 8000514:	9307      	str	r3, [sp, #28]
 8000516:	f44f 0180 	mov.w	r1, #4194304	; 0x400000
 800051a:	2619      	movs	r6, #25
 800051c:	e9cd 330c 	strd	r3, r3, [sp, #48]	; 0x30
 8000520:	e9cd 3303 	strd	r3, r3, [sp, #12]
 8000524:	e9cd 3305 	strd	r3, r3, [sp, #20]
 8000528:	6c13      	ldr	r3, [r2, #64]	; 0x40
 800052a:	f043 5380 	orr.w	r3, r3, #268435456	; 0x10000000
 800052e:	6413      	str	r3, [r2, #64]	; 0x40
 8000530:	6c12      	ldr	r2, [r2, #64]	; 0x40
 8000532:	4b1d      	ldr	r3, [pc, #116]	; (80005a8 <SystemClock_Config+0xa8>)
 8000534:	f002 5280 	and.w	r2, r2, #268435456	; 0x10000000
 8000538:	9201      	str	r2, [sp, #4]
 800053a:	9a01      	ldr	r2, [sp, #4]
 800053c:	681a      	ldr	r2, [r3, #0]
 800053e:	f442 4240 	orr.w	r2, r2, #49152	; 0xc000
 8000542:	601a      	str	r2, [r3, #0]
 8000544:	f44f 72c8 	mov.w	r2, #400	; 0x190
 8000548:	681b      	ldr	r3, [r3, #0]
 800054a:	9009      	str	r0, [sp, #36]	; 0x24
 800054c:	f403 4340 	and.w	r3, r3, #49152	; 0xc000
 8000550:	9508      	str	r5, [sp, #32]
 8000552:	940e      	str	r4, [sp, #56]	; 0x38
 8000554:	9302      	str	r3, [sp, #8]
 8000556:	2308      	movs	r3, #8
 8000558:	9802      	ldr	r0, [sp, #8]
 800055a:	a808      	add	r0, sp, #32
 800055c:	9412      	str	r4, [sp, #72]	; 0x48
 800055e:	9211      	str	r2, [sp, #68]	; 0x44
 8000560:	9313      	str	r3, [sp, #76]	; 0x4c
 8000562:	e9cd 160f 	strd	r1, r6, [sp, #60]	; 0x3c
 8000566:	f000 fe09 	bl	800117c <HAL_RCC_OscConfig>
 800056a:	b108      	cbz	r0, 8000570 <SystemClock_Config+0x70>
 800056c:	b672      	cpsid	i
 800056e:	e7fe      	b.n	800056e <SystemClock_Config+0x6e>
 8000570:	f000 fdc8 	bl	8001104 <HAL_PWREx_EnableOverDrive>
 8000574:	4603      	mov	r3, r0
 8000576:	b108      	cbz	r0, 800057c <SystemClock_Config+0x7c>
 8000578:	b672      	cpsid	i
 800057a:	e7fe      	b.n	800057a <SystemClock_Config+0x7a>
 800057c:	260f      	movs	r6, #15
 800057e:	f44f 55a0 	mov.w	r5, #5120	; 0x1400
 8000582:	f44f 5280 	mov.w	r2, #4096	; 0x1000
 8000586:	a803      	add	r0, sp, #12
 8000588:	2106      	movs	r1, #6
 800058a:	9404      	str	r4, [sp, #16]
 800058c:	9305      	str	r3, [sp, #20]
 800058e:	9603      	str	r6, [sp, #12]
 8000590:	e9cd 5206 	strd	r5, r2, [sp, #24]
 8000594:	f001 f820 	bl	80015d8 <HAL_RCC_ClockConfig>
 8000598:	b108      	cbz	r0, 800059e <SystemClock_Config+0x9e>
 800059a:	b672      	cpsid	i
 800059c:	e7fe      	b.n	800059c <SystemClock_Config+0x9c>
 800059e:	b014      	add	sp, #80	; 0x50
 80005a0:	bd70      	pop	{r4, r5, r6, pc}
 80005a2:	bf00      	nop
 80005a4:	40023800 	.word	0x40023800
 80005a8:	40007000 	.word	0x40007000

080005ac <PeriphCommonClock_Config>:
 80005ac:	b530      	push	{r4, r5, lr}
 80005ae:	b0a3      	sub	sp, #140	; 0x8c
 80005b0:	2280      	movs	r2, #128	; 0x80
 80005b2:	2100      	movs	r1, #0
 80005b4:	4d0b      	ldr	r5, [pc, #44]	; (80005e4 <PeriphCommonClock_Config+0x38>)
 80005b6:	a802      	add	r0, sp, #8
 80005b8:	24c0      	movs	r4, #192	; 0xc0
 80005ba:	f001 fb87 	bl	8001ccc <memset>
 80005be:	2301      	movs	r3, #1
 80005c0:	2202      	movs	r2, #2
 80005c2:	f04f 6100 	mov.w	r1, #134217728	; 0x8000000
 80005c6:	a801      	add	r0, sp, #4
 80005c8:	9501      	str	r5, [sp, #4]
 80005ca:	9406      	str	r4, [sp, #24]
 80005cc:	9309      	str	r3, [sp, #36]	; 0x24
 80005ce:	930b      	str	r3, [sp, #44]	; 0x2c
 80005d0:	9120      	str	r1, [sp, #128]	; 0x80
 80005d2:	e9cd 2207 	strd	r2, r2, [sp, #28]
 80005d6:	f001 f8a1 	bl	800171c <HAL_RCCEx_PeriphCLKConfig>
 80005da:	b108      	cbz	r0, 80005e0 <PeriphCommonClock_Config+0x34>
 80005dc:	b672      	cpsid	i
 80005de:	e7fe      	b.n	80005de <PeriphCommonClock_Config+0x32>
 80005e0:	b023      	add	sp, #140	; 0x8c
 80005e2:	bd30      	pop	{r4, r5, pc}
 80005e4:	00200008 	.word	0x00200008

080005e8 <main>:
 80005e8:	b580      	push	{r7, lr}
 80005ea:	2400      	movs	r4, #0
 80005ec:	b094      	sub	sp, #80	; 0x50
 80005ee:	e9cd 4407 	strd	r4, r4, [sp, #28]
 80005f2:	e9cd 4409 	strd	r4, r4, [sp, #36]	; 0x24
 80005f6:	f000 facf 	bl	8000b98 <HAL_MPU_Disable>
 80005fa:	2301      	movs	r3, #1
 80005fc:	4988      	ldr	r1, [pc, #544]	; (8000820 <main+0x238>)
 80005fe:	a807      	add	r0, sp, #28
 8000600:	4a88      	ldr	r2, [pc, #544]	; (8000824 <main+0x23c>)
 8000602:	f8ad 301c 	strh.w	r3, [sp, #28]
 8000606:	f44f 3380 	mov.w	r3, #65536	; 0x10000
 800060a:	e9cd 1208 	strd	r1, r2, [sp, #32]
 800060e:	930a      	str	r3, [sp, #40]	; 0x28
 8000610:	f000 fae4 	bl	8000bdc <HAL_MPU_ConfigRegion>
 8000614:	2004      	movs	r0, #4
 8000616:	f000 facf 	bl	8000bb8 <HAL_MPU_Enable>
 800061a:	f3bf 8f4f 	dsb	sy
 800061e:	f3bf 8f6f 	isb	sy
 8000622:	4981      	ldr	r1, [pc, #516]	; (8000828 <main+0x240>)
 8000624:	f8c1 4250 	str.w	r4, [r1, #592]	; 0x250
 8000628:	f3bf 8f4f 	dsb	sy
 800062c:	f3bf 8f6f 	isb	sy
 8000630:	694b      	ldr	r3, [r1, #20]
 8000632:	f443 3300 	orr.w	r3, r3, #131072	; 0x20000
 8000636:	614b      	str	r3, [r1, #20]
 8000638:	f3bf 8f4f 	dsb	sy
 800063c:	f3bf 8f6f 	isb	sy
 8000640:	f8c1 4084 	str.w	r4, [r1, #132]	; 0x84
 8000644:	f3bf 8f4f 	dsb	sy
 8000648:	f8d1 5080 	ldr.w	r5, [r1, #128]	; 0x80
 800064c:	f643 76e0 	movw	r6, #16352	; 0x3fe0
 8000650:	f3c5 344e 	ubfx	r4, r5, #13, #15
 8000654:	f3c5 05c9 	ubfx	r5, r5, #3, #10
 8000658:	0164      	lsls	r4, r4, #5
 800065a:	ea04 0006 	and.w	r0, r4, r6
 800065e:	462b      	mov	r3, r5
 8000660:	ea40 7283 	orr.w	r2, r0, r3, lsl #30
 8000664:	3b01      	subs	r3, #1
 8000666:	f8c1 2260 	str.w	r2, [r1, #608]	; 0x260
 800066a:	1c5a      	adds	r2, r3, #1
 800066c:	d1f8      	bne.n	8000660 <main+0x78>
 800066e:	3c20      	subs	r4, #32
 8000670:	f114 0f20 	cmn.w	r4, #32
 8000674:	d1f1      	bne.n	800065a <main+0x72>
 8000676:	f3bf 8f4f 	dsb	sy
 800067a:	694b      	ldr	r3, [r1, #20]
 800067c:	f443 3380 	orr.w	r3, r3, #65536	; 0x10000
 8000680:	614b      	str	r3, [r1, #20]
 8000682:	f3bf 8f4f 	dsb	sy
 8000686:	f3bf 8f6f 	isb	sy
 800068a:	f000 fa01 	bl	8000a90 <HAL_Init>
 800068e:	2500      	movs	r5, #0
 8000690:	f7ff ff36 	bl	8000500 <SystemClock_Config>
 8000694:	2401      	movs	r4, #1
 8000696:	f7ff ff89 	bl	80005ac <PeriphCommonClock_Config>
 800069a:	4b64      	ldr	r3, [pc, #400]	; (800082c <main+0x244>)
 800069c:	9507      	str	r5, [sp, #28]
 800069e:	2602      	movs	r6, #2
 80006a0:	9508      	str	r5, [sp, #32]
 80006a2:	4622      	mov	r2, r4
 80006a4:	950b      	str	r5, [sp, #44]	; 0x2c
 80006a6:	2108      	movs	r1, #8
 80006a8:	2735      	movs	r7, #53	; 0x35
 80006aa:	e9cd 5509 	strd	r5, r5, [sp, #36]	; 0x24
 80006ae:	6b18      	ldr	r0, [r3, #48]	; 0x30
 80006b0:	f040 0010 	orr.w	r0, r0, #16
 80006b4:	6318      	str	r0, [r3, #48]	; 0x30
 80006b6:	6b18      	ldr	r0, [r3, #48]	; 0x30
 80006b8:	f000 0010 	and.w	r0, r0, #16
 80006bc:	9000      	str	r0, [sp, #0]
 80006be:	9800      	ldr	r0, [sp, #0]
 80006c0:	6b18      	ldr	r0, [r3, #48]	; 0x30
 80006c2:	4320      	orrs	r0, r4
 80006c4:	6318      	str	r0, [r3, #48]	; 0x30
 80006c6:	6b18      	ldr	r0, [r3, #48]	; 0x30
 80006c8:	4020      	ands	r0, r4
 80006ca:	9001      	str	r0, [sp, #4]
 80006cc:	9801      	ldr	r0, [sp, #4]
 80006ce:	6b18      	ldr	r0, [r3, #48]	; 0x30
 80006d0:	f440 7000 	orr.w	r0, r0, #512	; 0x200
 80006d4:	6318      	str	r0, [r3, #48]	; 0x30
 80006d6:	6b18      	ldr	r0, [r3, #48]	; 0x30
 80006d8:	f400 7000 	and.w	r0, r0, #512	; 0x200
 80006dc:	9002      	str	r0, [sp, #8]
 80006de:	9802      	ldr	r0, [sp, #8]
 80006e0:	6b18      	ldr	r0, [r3, #48]	; 0x30
 80006e2:	f440 6080 	orr.w	r0, r0, #1024	; 0x400
 80006e6:	6318      	str	r0, [r3, #48]	; 0x30
 80006e8:	6b18      	ldr	r0, [r3, #48]	; 0x30
 80006ea:	f400 6080 	and.w	r0, r0, #1024	; 0x400
 80006ee:	9003      	str	r0, [sp, #12]
 80006f0:	9803      	ldr	r0, [sp, #12]
 80006f2:	6b18      	ldr	r0, [r3, #48]	; 0x30
 80006f4:	f040 0040 	orr.w	r0, r0, #64	; 0x40
 80006f8:	6318      	str	r0, [r3, #48]	; 0x30
 80006fa:	6b18      	ldr	r0, [r3, #48]	; 0x30
 80006fc:	f000 0040 	and.w	r0, r0, #64	; 0x40
 8000700:	9004      	str	r0, [sp, #16]
 8000702:	9804      	ldr	r0, [sp, #16]
 8000704:	6b18      	ldr	r0, [r3, #48]	; 0x30
 8000706:	f440 7080 	orr.w	r0, r0, #256	; 0x100
 800070a:	6318      	str	r0, [r3, #48]	; 0x30
 800070c:	6b18      	ldr	r0, [r3, #48]	; 0x30
 800070e:	f400 7080 	and.w	r0, r0, #256	; 0x100
 8000712:	9005      	str	r0, [sp, #20]
 8000714:	9805      	ldr	r0, [sp, #20]
 8000716:	6b18      	ldr	r0, [r3, #48]	; 0x30
 8000718:	f040 0080 	orr.w	r0, r0, #128	; 0x80
 800071c:	6318      	str	r0, [r3, #48]	; 0x30
 800071e:	6b1b      	ldr	r3, [r3, #48]	; 0x30
 8000720:	4843      	ldr	r0, [pc, #268]	; (8000830 <main+0x248>)
 8000722:	f003 0380 	and.w	r3, r3, #128	; 0x80
 8000726:	9306      	str	r3, [sp, #24]
 8000728:	9b06      	ldr	r3, [sp, #24]
 800072a:	f000 fbab 	bl	8000e84 <HAL_GPIO_WritePin>
 800072e:	462a      	mov	r2, r5
 8000730:	4631      	mov	r1, r6
 8000732:	4840      	ldr	r0, [pc, #256]	; (8000834 <main+0x24c>)
 8000734:	f000 fba6 	bl	8000e84 <HAL_GPIO_WritePin>
 8000738:	4622      	mov	r2, r4
 800073a:	f44f 5180 	mov.w	r1, #4096	; 0x1000
 800073e:	483d      	ldr	r0, [pc, #244]	; (8000834 <main+0x24c>)
 8000740:	f000 fba0 	bl	8000e84 <HAL_GPIO_WritePin>
 8000744:	2308      	movs	r3, #8
 8000746:	a907      	add	r1, sp, #28
 8000748:	4839      	ldr	r0, [pc, #228]	; (8000830 <main+0x248>)
 800074a:	9509      	str	r5, [sp, #36]	; 0x24
 800074c:	960a      	str	r6, [sp, #40]	; 0x28
 800074e:	e9cd 3407 	strd	r3, r4, [sp, #28]
 8000752:	f000 fa6b 	bl	8000c2c <HAL_GPIO_Init>
 8000756:	a907      	add	r1, sp, #28
 8000758:	4836      	ldr	r0, [pc, #216]	; (8000834 <main+0x24c>)
 800075a:	e9cd 6407 	strd	r6, r4, [sp, #28]
 800075e:	e9cd 5509 	strd	r5, r5, [sp, #36]	; 0x24
 8000762:	f000 fa63 	bl	8000c2c <HAL_GPIO_Init>
 8000766:	f44f 5380 	mov.w	r3, #4096	; 0x1000
 800076a:	a907      	add	r1, sp, #28
 800076c:	4831      	ldr	r0, [pc, #196]	; (8000834 <main+0x24c>)
 800076e:	9307      	str	r3, [sp, #28]
 8000770:	960a      	str	r6, [sp, #40]	; 0x28
 8000772:	e9cd 4508 	strd	r4, r5, [sp, #32]
 8000776:	f000 fa59 	bl	8000c2c <HAL_GPIO_Init>
 800077a:	4629      	mov	r1, r5
 800077c:	2234      	movs	r2, #52	; 0x34
 800077e:	a807      	add	r0, sp, #28
 8000780:	f001 faa4 	bl	8001ccc <memset>
 8000784:	4c2c      	ldr	r4, [pc, #176]	; (8000838 <main+0x250>)
 8000786:	492d      	ldr	r1, [pc, #180]	; (800083c <main+0x254>)
 8000788:	2228      	movs	r2, #40	; 0x28
 800078a:	2309      	movs	r3, #9
 800078c:	200b      	movs	r0, #11
 800078e:	6065      	str	r5, [r4, #4]
 8000790:	60a5      	str	r5, [r4, #8]
 8000792:	86a5      	strh	r5, [r4, #52]	; 0x34
 8000794:	f884 5036 	strb.w	r5, [r4, #54]	; 0x36
 8000798:	6021      	str	r1, [r4, #0]
 800079a:	f240 111b 	movw	r1, #283	; 0x11b
 800079e:	6162      	str	r2, [r4, #20]
 80007a0:	f240 2235 	movw	r2, #565	; 0x235
 80007a4:	61a3      	str	r3, [r4, #24]
 80007a6:	f240 131d 	movw	r3, #285	; 0x11d
 80007aa:	e9c4 5503 	strd	r5, r5, [r4, #12]
 80007ae:	f240 2515 	movw	r5, #533	; 0x215
 80007b2:	e9c4 7007 	strd	r7, r0, [r4, #28]
 80007b6:	4620      	mov	r0, r4
 80007b8:	e9c4 230b 	strd	r2, r3, [r4, #44]	; 0x2c
 80007bc:	e9c4 5109 	strd	r5, r1, [r4, #36]	; 0x24
 80007c0:	f000 fbfc 	bl	8000fbc <HAL_LTDC_Init>
 80007c4:	4602      	mov	r2, r0
 80007c6:	b108      	cbz	r0, 80007cc <main+0x1e4>
 80007c8:	b672      	cpsid	i
 80007ca:	e7fe      	b.n	80007ca <main+0x1e2>
 80007cc:	f44f 75f0 	mov.w	r5, #480	; 0x1e0
 80007d0:	f44f 7388 	mov.w	r3, #272	; 0x110
 80007d4:	4620      	mov	r0, r4
 80007d6:	f04f 0cff 	mov.w	ip, #255	; 0xff
 80007da:	f44f 6780 	mov.w	r7, #1024	; 0x400
 80007de:	2405      	movs	r4, #5
 80007e0:	a907      	add	r1, sp, #28
 80007e2:	9207      	str	r2, [sp, #28]
 80007e4:	9209      	str	r2, [sp, #36]	; 0x24
 80007e6:	960b      	str	r6, [sp, #44]	; 0x2c
 80007e8:	920d      	str	r2, [sp, #52]	; 0x34
 80007ea:	9210      	str	r2, [sp, #64]	; 0x40
 80007ec:	f8ad 204c 	strh.w	r2, [sp, #76]	; 0x4c
 80007f0:	f88d 204e 	strb.w	r2, [sp, #78]	; 0x4e
 80007f4:	9508      	str	r5, [sp, #32]
 80007f6:	9511      	str	r5, [sp, #68]	; 0x44
 80007f8:	930a      	str	r3, [sp, #40]	; 0x28
 80007fa:	9312      	str	r3, [sp, #72]	; 0x48
 80007fc:	f8cd c030 	str.w	ip, [sp, #48]	; 0x30
 8000800:	e9cd 740e 	strd	r7, r4, [sp, #56]	; 0x38
 8000804:	f000 fc4e 	bl	80010a4 <HAL_LTDC_ConfigLayer>
 8000808:	b938      	cbnz	r0, 800081a <main+0x232>
 800080a:	480d      	ldr	r0, [pc, #52]	; (8000840 <main+0x258>)
 800080c:	4b0d      	ldr	r3, [pc, #52]	; (8000844 <main+0x25c>)
 800080e:	6003      	str	r3, [r0, #0]
 8000810:	f001 fa1e 	bl	8001c50 <HAL_RNG_Init>
 8000814:	b118      	cbz	r0, 800081e <main+0x236>
 8000816:	b672      	cpsid	i
 8000818:	e7fe      	b.n	8000818 <main+0x230>
 800081a:	b672      	cpsid	i
 800081c:	e7fe      	b.n	800081c <main+0x234>
 800081e:	e7fe      	b.n	800081e <main+0x236>
 8000820:	20010000 	.word	0x20010000
 8000824:	03000011 	.word	0x03000011
 8000828:	e000ed00 	.word	0xe000ed00
 800082c:	40023800 	.word	0x40023800
 8000830:	40022800 	.word	0x40022800
 8000834:	40022000 	.word	0x40022000
 8000838:	20000028 	.word	0x20000028
 800083c:	40016800 	.word	0x40016800
 8000840:	200000d0 	.word	0x200000d0
 8000844:	50060800 	.word	0x50060800

08000848 <HAL_MspInit>:
 8000848:	4b0a      	ldr	r3, [pc, #40]	; (8000874 <HAL_MspInit+0x2c>)
 800084a:	b082      	sub	sp, #8
 800084c:	6c1a      	ldr	r2, [r3, #64]	; 0x40
 800084e:	f042 5280 	orr.w	r2, r2, #268435456	; 0x10000000
 8000852:	641a      	str	r2, [r3, #64]	; 0x40
 8000854:	6c1a      	ldr	r2, [r3, #64]	; 0x40
 8000856:	f002 5280 	and.w	r2, r2, #268435456	; 0x10000000
 800085a:	9200      	str	r2, [sp, #0]
 800085c:	9a00      	ldr	r2, [sp, #0]
 800085e:	6c5a      	ldr	r2, [r3, #68]	; 0x44
 8000860:	f442 4280 	orr.w	r2, r2, #16384	; 0x4000
 8000864:	645a      	str	r2, [r3, #68]	; 0x44
 8000866:	6c5b      	ldr	r3, [r3, #68]	; 0x44
 8000868:	f403 4380 	and.w	r3, r3, #16384	; 0x4000
 800086c:	9301      	str	r3, [sp, #4]
 800086e:	9b01      	ldr	r3, [sp, #4]
 8000870:	b002      	add	sp, #8
 8000872:	4770      	bx	lr
 8000874:	40023800 	.word	0x40023800

08000878 <HAL_LTDC_MspInit>:
 8000878:	4b3f      	ldr	r3, [pc, #252]	; (8000978 <HAL_LTDC_MspInit+0x100>)
 800087a:	6802      	ldr	r2, [r0, #0]
 800087c:	b570      	push	{r4, r5, r6, lr}
 800087e:	429a      	cmp	r2, r3
 8000880:	b08c      	sub	sp, #48	; 0x30
 8000882:	f04f 0400 	mov.w	r4, #0
 8000886:	e9cd 4407 	strd	r4, r4, [sp, #28]
 800088a:	e9cd 4409 	strd	r4, r4, [sp, #36]	; 0x24
 800088e:	940b      	str	r4, [sp, #44]	; 0x2c
 8000890:	d001      	beq.n	8000896 <HAL_LTDC_MspInit+0x1e>
 8000892:	b00c      	add	sp, #48	; 0x30
 8000894:	bd70      	pop	{r4, r5, r6, pc}
 8000896:	f503 4350 	add.w	r3, r3, #53248	; 0xd000
 800089a:	2010      	movs	r0, #16
 800089c:	2502      	movs	r5, #2
 800089e:	260e      	movs	r6, #14
 80008a0:	6c5a      	ldr	r2, [r3, #68]	; 0x44
 80008a2:	a907      	add	r1, sp, #28
 80008a4:	f042 6280 	orr.w	r2, r2, #67108864	; 0x4000000
 80008a8:	645a      	str	r2, [r3, #68]	; 0x44
 80008aa:	6c5a      	ldr	r2, [r3, #68]	; 0x44
 80008ac:	f002 6280 	and.w	r2, r2, #67108864	; 0x4000000
 80008b0:	9201      	str	r2, [sp, #4]
 80008b2:	9a01      	ldr	r2, [sp, #4]
 80008b4:	6b1a      	ldr	r2, [r3, #48]	; 0x30
 80008b6:	4302      	orrs	r2, r0
 80008b8:	631a      	str	r2, [r3, #48]	; 0x30
 80008ba:	6b1a      	ldr	r2, [r3, #48]	; 0x30
 80008bc:	4002      	ands	r2, r0
 80008be:	9202      	str	r2, [sp, #8]
 80008c0:	9a02      	ldr	r2, [sp, #8]
 80008c2:	6b1a      	ldr	r2, [r3, #48]	; 0x30
 80008c4:	f442 7200 	orr.w	r2, r2, #512	; 0x200
 80008c8:	631a      	str	r2, [r3, #48]	; 0x30
 80008ca:	6b1a      	ldr	r2, [r3, #48]	; 0x30
 80008cc:	f402 7200 	and.w	r2, r2, #512	; 0x200
 80008d0:	9203      	str	r2, [sp, #12]
 80008d2:	9a03      	ldr	r2, [sp, #12]
 80008d4:	6b1a      	ldr	r2, [r3, #48]	; 0x30
 80008d6:	f442 6280 	orr.w	r2, r2, #1024	; 0x400
 80008da:	631a      	str	r2, [r3, #48]	; 0x30
 80008dc:	6b1a      	ldr	r2, [r3, #48]	; 0x30
 80008de:	f402 6280 	and.w	r2, r2, #1024	; 0x400
 80008e2:	9204      	str	r2, [sp, #16]
 80008e4:	9a04      	ldr	r2, [sp, #16]
 80008e6:	6b1a      	ldr	r2, [r3, #48]	; 0x30
 80008e8:	f042 0240 	orr.w	r2, r2, #64	; 0x40
 80008ec:	631a      	str	r2, [r3, #48]	; 0x30
 80008ee:	6b1a      	ldr	r2, [r3, #48]	; 0x30
 80008f0:	f002 0240 	and.w	r2, r2, #64	; 0x40
 80008f4:	9205      	str	r2, [sp, #20]
 80008f6:	9a05      	ldr	r2, [sp, #20]
 80008f8:	6b1a      	ldr	r2, [r3, #48]	; 0x30
 80008fa:	f442 7280 	orr.w	r2, r2, #256	; 0x100
 80008fe:	631a      	str	r2, [r3, #48]	; 0x30
 8000900:	6b1b      	ldr	r3, [r3, #48]	; 0x30
 8000902:	9007      	str	r0, [sp, #28]
 8000904:	f403 7380 	and.w	r3, r3, #256	; 0x100
 8000908:	481c      	ldr	r0, [pc, #112]	; (800097c <HAL_LTDC_MspInit+0x104>)
 800090a:	9508      	str	r5, [sp, #32]
 800090c:	9306      	str	r3, [sp, #24]
 800090e:	9b06      	ldr	r3, [sp, #24]
 8000910:	e9cd 4509 	strd	r4, r5, [sp, #36]	; 0x24
 8000914:	960b      	str	r6, [sp, #44]	; 0x2c
 8000916:	f000 f989 	bl	8000c2c <HAL_GPIO_Init>
 800091a:	f64e 73ff 	movw	r3, #61439	; 0xefff
 800091e:	a907      	add	r1, sp, #28
 8000920:	4817      	ldr	r0, [pc, #92]	; (8000980 <HAL_LTDC_MspInit+0x108>)
 8000922:	9307      	str	r3, [sp, #28]
 8000924:	9508      	str	r5, [sp, #32]
 8000926:	9409      	str	r4, [sp, #36]	; 0x24
 8000928:	e9cd 560a 	strd	r5, r6, [sp, #40]	; 0x28
 800092c:	f000 f97e 	bl	8000c2c <HAL_GPIO_Init>
 8000930:	23f7      	movs	r3, #247	; 0xf7
 8000932:	a907      	add	r1, sp, #28
 8000934:	4813      	ldr	r0, [pc, #76]	; (8000984 <HAL_LTDC_MspInit+0x10c>)
 8000936:	9307      	str	r3, [sp, #28]
 8000938:	9508      	str	r5, [sp, #32]
 800093a:	9409      	str	r4, [sp, #36]	; 0x24
 800093c:	e9cd 560a 	strd	r5, r6, [sp, #40]	; 0x28
 8000940:	f000 f974 	bl	8000c2c <HAL_GPIO_Init>
 8000944:	f44f 5280 	mov.w	r2, #4096	; 0x1000
 8000948:	2309      	movs	r3, #9
 800094a:	a907      	add	r1, sp, #28
 800094c:	480e      	ldr	r0, [pc, #56]	; (8000988 <HAL_LTDC_MspInit+0x110>)
 800094e:	9207      	str	r2, [sp, #28]
 8000950:	930b      	str	r3, [sp, #44]	; 0x2c
 8000952:	9508      	str	r5, [sp, #32]
 8000954:	e9cd 4509 	strd	r4, r5, [sp, #36]	; 0x24
 8000958:	f000 f968 	bl	8000c2c <HAL_GPIO_Init>
 800095c:	f44f 4346 	mov.w	r3, #50688	; 0xc600
 8000960:	a907      	add	r1, sp, #28
 8000962:	480a      	ldr	r0, [pc, #40]	; (800098c <HAL_LTDC_MspInit+0x114>)
 8000964:	960b      	str	r6, [sp, #44]	; 0x2c
 8000966:	9508      	str	r5, [sp, #32]
 8000968:	9307      	str	r3, [sp, #28]
 800096a:	e9cd 4509 	strd	r4, r5, [sp, #36]	; 0x24
 800096e:	f000 f95d 	bl	8000c2c <HAL_GPIO_Init>
 8000972:	b00c      	add	sp, #48	; 0x30
 8000974:	bd70      	pop	{r4, r5, r6, pc}
 8000976:	bf00      	nop
 8000978:	40016800 	.word	0x40016800
 800097c:	40021000 	.word	0x40021000
 8000980:	40022400 	.word	0x40022400
 8000984:	40022800 	.word	0x40022800
 8000988:	40021800 	.word	0x40021800
 800098c:	40022000 	.word	0x40022000

08000990 <HAL_RNG_MspInit>:
 8000990:	4b08      	ldr	r3, [pc, #32]	; (80009b4 <HAL_RNG_MspInit+0x24>)
 8000992:	6802      	ldr	r2, [r0, #0]
 8000994:	429a      	cmp	r2, r3
 8000996:	d000      	beq.n	800099a <HAL_RNG_MspInit+0xa>
 8000998:	4770      	bx	lr
 800099a:	4b07      	ldr	r3, [pc, #28]	; (80009b8 <HAL_RNG_MspInit+0x28>)
 800099c:	b082      	sub	sp, #8
 800099e:	6b5a      	ldr	r2, [r3, #52]	; 0x34
 80009a0:	f042 0240 	orr.w	r2, r2, #64	; 0x40
 80009a4:	635a      	str	r2, [r3, #52]	; 0x34
 80009a6:	6b5b      	ldr	r3, [r3, #52]	; 0x34
 80009a8:	f003 0340 	and.w	r3, r3, #64	; 0x40
 80009ac:	9301      	str	r3, [sp, #4]
 80009ae:	9b01      	ldr	r3, [sp, #4]
 80009b0:	b002      	add	sp, #8
 80009b2:	4770      	bx	lr
 80009b4:	50060800 	.word	0x50060800
 80009b8:	40023800 	.word	0x40023800

080009bc <NMI_Handler>:
 80009bc:	e7fe      	b.n	80009bc <NMI_Handler>
 80009be:	bf00      	nop

080009c0 <HardFault_Handler>:
 80009c0:	e7fe      	b.n	80009c0 <HardFault_Handler>
 80009c2:	bf00      	nop

080009c4 <MemManage_Handler>:
 80009c4:	e7fe      	b.n	80009c4 <MemManage_Handler>
 80009c6:	bf00      	nop

080009c8 <BusFault_Handler>:
 80009c8:	e7fe      	b.n	80009c8 <BusFault_Handler>
 80009ca:	bf00      	nop

080009cc <UsageFault_Handler>:
 80009cc:	e7fe      	b.n	80009cc <UsageFault_Handler>
 80009ce:	bf00      	nop

080009d0 <SVC_Handler>:
 80009d0:	4770      	bx	lr
 80009d2:	bf00      	nop

080009d4 <DebugMon_Handler>:
 80009d4:	4770      	bx	lr
 80009d6:	bf00      	nop

080009d8 <PendSV_Handler>:
 80009d8:	4770      	bx	lr
 80009da:	bf00      	nop

080009dc <SysTick_Handler>:
 80009dc:	f000 b864 	b.w	8000aa8 <HAL_IncTick>

080009e0 <SystemInit>:
 80009e0:	4a03      	ldr	r2, [pc, #12]	; (80009f0 <SystemInit+0x10>)
 80009e2:	f8d2 3088 	ldr.w	r3, [r2, #136]	; 0x88
 80009e6:	f443 0370 	orr.w	r3, r3, #15728640	; 0xf00000
 80009ea:	f8c2 3088 	str.w	r3, [r2, #136]	; 0x88
 80009ee:	4770      	bx	lr
 80009f0:	e000ed00 	.word	0xe000ed00

080009f4 <Reset_Handler>:
 80009f4:	f8df d034 	ldr.w	sp, [pc, #52]	; 8000a2c <LoopFillZerobss+0x12>
 80009f8:	480d      	ldr	r0, [pc, #52]	; (8000a30 <LoopFillZerobss+0x16>)
 80009fa:	490e      	ldr	r1, [pc, #56]	; (8000a34 <LoopFillZerobss+0x1a>)
 80009fc:	4a0e      	ldr	r2, [pc, #56]	; (8000a38 <LoopFillZerobss+0x1e>)
 80009fe:	2300      	movs	r3, #0
 8000a00:	e002      	b.n	8000a08 <LoopCopyDataInit>

08000a02 <CopyDataInit>:
 8000a02:	58d4      	ldr	r4, [r2, r3]
 8000a04:	50c4      	str	r4, [r0, r3]
 8000a06:	3304      	adds	r3, #4

08000a08 <LoopCopyDataInit>:
 8000a08:	18c4      	adds	r4, r0, r3
 8000a0a:	428c      	cmp	r4, r1
 8000a0c:	d3f9      	bcc.n	8000a02 <CopyDataInit>
 8000a0e:	4a0b      	ldr	r2, [pc, #44]	; (8000a3c <LoopFillZerobss+0x22>)
 8000a10:	4c0b      	ldr	r4, [pc, #44]	; (8000a40 <LoopFillZerobss+0x26>)
 8000a12:	2300      	movs	r3, #0
 8000a14:	e001      	b.n	8000a1a <LoopFillZerobss>

08000a16 <FillZerobss>:
 8000a16:	6013      	str	r3, [r2, #0]
 8000a18:	3204      	adds	r2, #4

08000a1a <LoopFillZerobss>:
 8000a1a:	42a2      	cmp	r2, r4
 8000a1c:	d3fb      	bcc.n	8000a16 <FillZerobss>
 8000a1e:	f7ff ffdf 	bl	80009e0 <SystemInit>
 8000a22:	f001 f92f 	bl	8001c84 <__libc_init_array>
 8000a26:	f7ff fddf 	bl	80005e8 <main>
 8000a2a:	4770      	bx	lr
 8000a2c:	20050000 	.word	0x20050000
 8000a30:	20000000 	.word	0x20000000
 8000a34:	2000000c 	.word	0x2000000c
 8000a38:	08001d14 	.word	0x08001d14
 8000a3c:	2000000c 	.word	0x2000000c
 8000a40:	200000e4 	.word	0x200000e4

08000a44 <ADC_IRQHandler>:
 8000a44:	e7fe      	b.n	8000a44 <ADC_IRQHandler>
	...

08000a48 <HAL_InitTick>:
 8000a48:	490e      	ldr	r1, [pc, #56]	; (8000a84 <HAL_InitTick+0x3c>)
 8000a4a:	f44f 737a 	mov.w	r3, #1000	; 0x3e8
 8000a4e:	4a0e      	ldr	r2, [pc, #56]	; (8000a88 <HAL_InitTick+0x40>)
 8000a50:	b510      	push	{r4, lr}
 8000a52:	7809      	ldrb	r1, [r1, #0]
 8000a54:	4604      	mov	r4, r0
 8000a56:	6812      	ldr	r2, [r2, #0]
 8000a58:	fbb3 f3f1 	udiv	r3, r3, r1
 8000a5c:	fbb2 f0f3 	udiv	r0, r2, r3
 8000a60:	f000 f882 	bl	8000b68 <HAL_SYSTICK_Config>
 8000a64:	b908      	cbnz	r0, 8000a6a <HAL_InitTick+0x22>
 8000a66:	2c0f      	cmp	r4, #15
 8000a68:	d901      	bls.n	8000a6e <HAL_InitTick+0x26>
 8000a6a:	2001      	movs	r0, #1
 8000a6c:	bd10      	pop	{r4, pc}
 8000a6e:	2200      	movs	r2, #0
 8000a70:	4621      	mov	r1, r4
 8000a72:	f04f 30ff 	mov.w	r0, #4294967295	; 0xffffffff
 8000a76:	f000 f83d 	bl	8000af4 <HAL_NVIC_SetPriority>
 8000a7a:	4b04      	ldr	r3, [pc, #16]	; (8000a8c <HAL_InitTick+0x44>)
 8000a7c:	2000      	movs	r0, #0
 8000a7e:	601c      	str	r4, [r3, #0]
 8000a80:	bd10      	pop	{r4, pc}
 8000a82:	bf00      	nop
 8000a84:	20000004 	.word	0x20000004
 8000a88:	20000000 	.word	0x20000000
 8000a8c:	20000008 	.word	0x20000008

08000a90 <HAL_Init>:
 8000a90:	b508      	push	{r3, lr}
 8000a92:	2003      	movs	r0, #3
 8000a94:	f000 f81a 	bl	8000acc <HAL_NVIC_SetPriorityGrouping>
 8000a98:	2000      	movs	r0, #0
 8000a9a:	f7ff ffd5 	bl	8000a48 <HAL_InitTick>
 8000a9e:	f7ff fed3 	bl	8000848 <HAL_MspInit>
 8000aa2:	2000      	movs	r0, #0
 8000aa4:	bd08      	pop	{r3, pc}
 8000aa6:	bf00      	nop

08000aa8 <HAL_IncTick>:
 8000aa8:	4a03      	ldr	r2, [pc, #12]	; (8000ab8 <HAL_IncTick+0x10>)
 8000aaa:	4b04      	ldr	r3, [pc, #16]	; (8000abc <HAL_IncTick+0x14>)
 8000aac:	6811      	ldr	r1, [r2, #0]
 8000aae:	781b      	ldrb	r3, [r3, #0]
 8000ab0:	440b      	add	r3, r1
 8000ab2:	6013      	str	r3, [r2, #0]
 8000ab4:	4770      	bx	lr
 8000ab6:	bf00      	nop
 8000ab8:	200000e0 	.word	0x200000e0
 8000abc:	20000004 	.word	0x20000004

08000ac0 <HAL_GetTick>:
 8000ac0:	4b01      	ldr	r3, [pc, #4]	; (8000ac8 <HAL_GetTick+0x8>)
 8000ac2:	6818      	ldr	r0, [r3, #0]
 8000ac4:	4770      	bx	lr
 8000ac6:	bf00      	nop
 8000ac8:	200000e0 	.word	0x200000e0

08000acc <HAL_NVIC_SetPriorityGrouping>:
 8000acc:	4907      	ldr	r1, [pc, #28]	; (8000aec <HAL_NVIC_SetPriorityGrouping+0x20>)
 8000ace:	0200      	lsls	r0, r0, #8
 8000ad0:	4b07      	ldr	r3, [pc, #28]	; (8000af0 <HAL_NVIC_SetPriorityGrouping+0x24>)
 8000ad2:	68ca      	ldr	r2, [r1, #12]
 8000ad4:	f400 60e0 	and.w	r0, r0, #1792	; 0x700
 8000ad8:	b410      	push	{r4}
 8000ada:	f64f 04ff 	movw	r4, #63743	; 0xf8ff
 8000ade:	4022      	ands	r2, r4
 8000ae0:	f85d 4b04 	ldr.w	r4, [sp], #4
 8000ae4:	4310      	orrs	r0, r2
 8000ae6:	4303      	orrs	r3, r0
 8000ae8:	60cb      	str	r3, [r1, #12]
 8000aea:	4770      	bx	lr
 8000aec:	e000ed00 	.word	0xe000ed00
 8000af0:	05fa0000 	.word	0x05fa0000

08000af4 <HAL_NVIC_SetPriority>:
 8000af4:	4b19      	ldr	r3, [pc, #100]	; (8000b5c <HAL_NVIC_SetPriority+0x68>)
 8000af6:	68db      	ldr	r3, [r3, #12]
 8000af8:	f3c3 2302 	ubfx	r3, r3, #8, #3
 8000afc:	b430      	push	{r4, r5}
 8000afe:	f1c3 0507 	rsb	r5, r3, #7
 8000b02:	1d1c      	adds	r4, r3, #4
 8000b04:	2d04      	cmp	r5, #4
 8000b06:	bf28      	it	cs
 8000b08:	2504      	movcs	r5, #4
 8000b0a:	2c06      	cmp	r4, #6
 8000b0c:	d919      	bls.n	8000b42 <HAL_NVIC_SetPriority+0x4e>
 8000b0e:	3b03      	subs	r3, #3
 8000b10:	f04f 34ff 	mov.w	r4, #4294967295	; 0xffffffff
 8000b14:	409c      	lsls	r4, r3
 8000b16:	ea22 0204 	bic.w	r2, r2, r4
 8000b1a:	f04f 34ff 	mov.w	r4, #4294967295	; 0xffffffff
 8000b1e:	2800      	cmp	r0, #0
 8000b20:	fa04 f405 	lsl.w	r4, r4, r5
 8000b24:	ea21 0104 	bic.w	r1, r1, r4
 8000b28:	fa01 f103 	lsl.w	r1, r1, r3
 8000b2c:	ea41 0102 	orr.w	r1, r1, r2
 8000b30:	db0a      	blt.n	8000b48 <HAL_NVIC_SetPriority+0x54>
 8000b32:	0109      	lsls	r1, r1, #4
 8000b34:	4b0a      	ldr	r3, [pc, #40]	; (8000b60 <HAL_NVIC_SetPriority+0x6c>)
 8000b36:	b2c9      	uxtb	r1, r1
 8000b38:	4403      	add	r3, r0
 8000b3a:	f883 1300 	strb.w	r1, [r3, #768]	; 0x300
 8000b3e:	bc30      	pop	{r4, r5}
 8000b40:	4770      	bx	lr
 8000b42:	2200      	movs	r2, #0
 8000b44:	4613      	mov	r3, r2
 8000b46:	e7e8      	b.n	8000b1a <HAL_NVIC_SetPriority+0x26>
 8000b48:	f000 000f 	and.w	r0, r0, #15
 8000b4c:	0109      	lsls	r1, r1, #4
 8000b4e:	4b05      	ldr	r3, [pc, #20]	; (8000b64 <HAL_NVIC_SetPriority+0x70>)
 8000b50:	b2c9      	uxtb	r1, r1
 8000b52:	4403      	add	r3, r0
 8000b54:	7619      	strb	r1, [r3, #24]
 8000b56:	bc30      	pop	{r4, r5}
 8000b58:	4770      	bx	lr
 8000b5a:	bf00      	nop
 8000b5c:	e000ed00 	.word	0xe000ed00
 8000b60:	e000e100 	.word	0xe000e100
 8000b64:	e000ecfc 	.word	0xe000ecfc

08000b68 <HAL_SYSTICK_Config>:
 8000b68:	3801      	subs	r0, #1
 8000b6a:	f1b0 7f80 	cmp.w	r0, #16777216	; 0x1000000
 8000b6e:	d20d      	bcs.n	8000b8c <HAL_SYSTICK_Config+0x24>
 8000b70:	4b07      	ldr	r3, [pc, #28]	; (8000b90 <HAL_SYSTICK_Config+0x28>)
 8000b72:	2200      	movs	r2, #0
 8000b74:	2107      	movs	r1, #7
 8000b76:	b430      	push	{r4, r5}
 8000b78:	25f0      	movs	r5, #240	; 0xf0
 8000b7a:	4c06      	ldr	r4, [pc, #24]	; (8000b94 <HAL_SYSTICK_Config+0x2c>)
 8000b7c:	6058      	str	r0, [r3, #4]
 8000b7e:	4610      	mov	r0, r2
 8000b80:	f884 5023 	strb.w	r5, [r4, #35]	; 0x23
 8000b84:	609a      	str	r2, [r3, #8]
 8000b86:	6019      	str	r1, [r3, #0]
 8000b88:	bc30      	pop	{r4, r5}
 8000b8a:	4770      	bx	lr
 8000b8c:	2001      	movs	r0, #1
 8000b8e:	4770      	bx	lr
 8000b90:	e000e010 	.word	0xe000e010
 8000b94:	e000ed00 	.word	0xe000ed00

08000b98 <HAL_MPU_Disable>:
 8000b98:	f3bf 8f5f 	dmb	sy
 8000b9c:	4a04      	ldr	r2, [pc, #16]	; (8000bb0 <HAL_MPU_Disable+0x18>)
 8000b9e:	2000      	movs	r0, #0
 8000ba0:	4904      	ldr	r1, [pc, #16]	; (8000bb4 <HAL_MPU_Disable+0x1c>)
 8000ba2:	6a53      	ldr	r3, [r2, #36]	; 0x24
 8000ba4:	f423 3380 	bic.w	r3, r3, #65536	; 0x10000
 8000ba8:	6253      	str	r3, [r2, #36]	; 0x24
 8000baa:	6048      	str	r0, [r1, #4]
 8000bac:	4770      	bx	lr
 8000bae:	bf00      	nop
 8000bb0:	e000ed00 	.word	0xe000ed00
 8000bb4:	e000ed90 	.word	0xe000ed90

08000bb8 <HAL_MPU_Enable>:
 8000bb8:	4a06      	ldr	r2, [pc, #24]	; (8000bd4 <HAL_MPU_Enable+0x1c>)
 8000bba:	f040 0001 	orr.w	r0, r0, #1
 8000bbe:	4b06      	ldr	r3, [pc, #24]	; (8000bd8 <HAL_MPU_Enable+0x20>)
 8000bc0:	6058      	str	r0, [r3, #4]
 8000bc2:	6a53      	ldr	r3, [r2, #36]	; 0x24
 8000bc4:	f443 3380 	orr.w	r3, r3, #65536	; 0x10000
 8000bc8:	6253      	str	r3, [r2, #36]	; 0x24
 8000bca:	f3bf 8f4f 	dsb	sy
 8000bce:	f3bf 8f6f 	isb	sy
 8000bd2:	4770      	bx	lr
 8000bd4:	e000ed00 	.word	0xe000ed00
 8000bd8:	e000ed90 	.word	0xe000ed90

08000bdc <HAL_MPU_ConfigRegion>:
 8000bdc:	4a12      	ldr	r2, [pc, #72]	; (8000c28 <HAL_MPU_ConfigRegion+0x4c>)
 8000bde:	7843      	ldrb	r3, [r0, #1]
 8000be0:	6093      	str	r3, [r2, #8]
 8000be2:	7801      	ldrb	r1, [r0, #0]
 8000be4:	b1e9      	cbz	r1, 8000c22 <HAL_MPU_ConfigRegion+0x46>
 8000be6:	6843      	ldr	r3, [r0, #4]
 8000be8:	b470      	push	{r4, r5, r6}
 8000bea:	60d3      	str	r3, [r2, #12]
 8000bec:	7ac3      	ldrb	r3, [r0, #11]
 8000bee:	7b04      	ldrb	r4, [r0, #12]
 8000bf0:	061b      	lsls	r3, r3, #24
 8000bf2:	7a85      	ldrb	r5, [r0, #10]
 8000bf4:	7b86      	ldrb	r6, [r0, #14]
 8000bf6:	ea43 7304 	orr.w	r3, r3, r4, lsl #28
 8000bfa:	7b44      	ldrb	r4, [r0, #13]
 8000bfc:	430b      	orrs	r3, r1
 8000bfe:	7a01      	ldrb	r1, [r0, #8]
 8000c00:	ea43 43c5 	orr.w	r3, r3, r5, lsl #19
 8000c04:	7bc5      	ldrb	r5, [r0, #15]
 8000c06:	ea43 4384 	orr.w	r3, r3, r4, lsl #18
 8000c0a:	7a44      	ldrb	r4, [r0, #9]
 8000c0c:	ea43 4346 	orr.w	r3, r3, r6, lsl #17
 8000c10:	ea43 4305 	orr.w	r3, r3, r5, lsl #16
 8000c14:	ea43 2304 	orr.w	r3, r3, r4, lsl #8
 8000c18:	ea43 0341 	orr.w	r3, r3, r1, lsl #1
 8000c1c:	bc70      	pop	{r4, r5, r6}
 8000c1e:	6113      	str	r3, [r2, #16]
 8000c20:	4770      	bx	lr
 8000c22:	60d1      	str	r1, [r2, #12]
 8000c24:	6111      	str	r1, [r2, #16]
 8000c26:	4770      	bx	lr
 8000c28:	e000ed90 	.word	0xe000ed90

08000c2c <HAL_GPIO_Init>:
 8000c2c:	e92d 4ff0 	stmdb	sp!, {r4, r5, r6, r7, r8, r9, sl, fp, lr}
 8000c30:	2300      	movs	r3, #0
 8000c32:	b087      	sub	sp, #28
 8000c34:	f8df b244 	ldr.w	fp, [pc, #580]	; 8000e7c <HAL_GPIO_Init+0x250>
 8000c38:	468a      	mov	sl, r1
 8000c3a:	680c      	ldr	r4, [r1, #0]
 8000c3c:	f8df e240 	ldr.w	lr, [pc, #576]	; 8000e80 <HAL_GPIO_Init+0x254>
 8000c40:	e003      	b.n	8000c4a <HAL_GPIO_Init+0x1e>
 8000c42:	3301      	adds	r3, #1
 8000c44:	2b10      	cmp	r3, #16
 8000c46:	f000 8092 	beq.w	8000d6e <HAL_GPIO_Init+0x142>
 8000c4a:	2201      	movs	r2, #1
 8000c4c:	409a      	lsls	r2, r3
 8000c4e:	ea02 0604 	and.w	r6, r2, r4
 8000c52:	43a2      	bics	r2, r4
 8000c54:	d1f5      	bne.n	8000c42 <HAL_GPIO_Init+0x16>
 8000c56:	f8da 5004 	ldr.w	r5, [sl, #4]
 8000c5a:	f005 0c03 	and.w	ip, r5, #3
 8000c5e:	f10c 32ff 	add.w	r2, ip, #4294967295	; 0xffffffff
 8000c62:	2a01      	cmp	r2, #1
 8000c64:	ea4f 0243 	mov.w	r2, r3, lsl #1
 8000c68:	f240 8084 	bls.w	8000d74 <HAL_GPIO_Init+0x148>
 8000c6c:	f1bc 0f03 	cmp.w	ip, #3
 8000c70:	f040 80c6 	bne.w	8000e00 <HAL_GPIO_Init+0x1d4>
 8000c74:	fa0c f202 	lsl.w	r2, ip, r2
 8000c78:	43d1      	mvns	r1, r2
 8000c7a:	6807      	ldr	r7, [r0, #0]
 8000c7c:	f415 3f40 	tst.w	r5, #196608	; 0x30000
 8000c80:	ea01 0107 	and.w	r1, r1, r7
 8000c84:	ea42 0201 	orr.w	r2, r2, r1
 8000c88:	6002      	str	r2, [r0, #0]
 8000c8a:	d0da      	beq.n	8000c42 <HAL_GPIO_Init+0x16>
 8000c8c:	f8db 7044 	ldr.w	r7, [fp, #68]	; 0x44
 8000c90:	f023 0c03 	bic.w	ip, r3, #3
 8000c94:	f003 0203 	and.w	r2, r3, #3
 8000c98:	210f      	movs	r1, #15
 8000c9a:	f447 4780 	orr.w	r7, r7, #16384	; 0x4000
 8000c9e:	f10c 4c80 	add.w	ip, ip, #1073741824	; 0x40000000
 8000ca2:	0092      	lsls	r2, r2, #2
 8000ca4:	f8cb 7044 	str.w	r7, [fp, #68]	; 0x44
 8000ca8:	f50c 3c9c 	add.w	ip, ip, #79872	; 0x13800
 8000cac:	f8db 7044 	ldr.w	r7, [fp, #68]	; 0x44
 8000cb0:	fa01 f802 	lsl.w	r8, r1, r2
 8000cb4:	f407 4780 	and.w	r7, r7, #16384	; 0x4000
 8000cb8:	9705      	str	r7, [sp, #20]
 8000cba:	4f67      	ldr	r7, [pc, #412]	; (8000e58 <HAL_GPIO_Init+0x22c>)
 8000cbc:	9905      	ldr	r1, [sp, #20]
 8000cbe:	42b8      	cmp	r0, r7
 8000cc0:	f8dc 1008 	ldr.w	r1, [ip, #8]
 8000cc4:	ea21 0108 	bic.w	r1, r1, r8
 8000cc8:	d028      	beq.n	8000d1c <HAL_GPIO_Init+0xf0>
 8000cca:	f507 6780 	add.w	r7, r7, #1024	; 0x400
 8000cce:	42b8      	cmp	r0, r7
 8000cd0:	f000 809a 	beq.w	8000e08 <HAL_GPIO_Init+0x1dc>
 8000cd4:	4f61      	ldr	r7, [pc, #388]	; (8000e5c <HAL_GPIO_Init+0x230>)
 8000cd6:	42b8      	cmp	r0, r7
 8000cd8:	f000 809b 	beq.w	8000e12 <HAL_GPIO_Init+0x1e6>
 8000cdc:	4f60      	ldr	r7, [pc, #384]	; (8000e60 <HAL_GPIO_Init+0x234>)
 8000cde:	42b8      	cmp	r0, r7
 8000ce0:	f000 809c 	beq.w	8000e1c <HAL_GPIO_Init+0x1f0>
 8000ce4:	4f5f      	ldr	r7, [pc, #380]	; (8000e64 <HAL_GPIO_Init+0x238>)
 8000ce6:	42b8      	cmp	r0, r7
 8000ce8:	f000 809d 	beq.w	8000e26 <HAL_GPIO_Init+0x1fa>
 8000cec:	4f5e      	ldr	r7, [pc, #376]	; (8000e68 <HAL_GPIO_Init+0x23c>)
 8000cee:	42b8      	cmp	r0, r7
 8000cf0:	f000 80a3 	beq.w	8000e3a <HAL_GPIO_Init+0x20e>
 8000cf4:	4f5d      	ldr	r7, [pc, #372]	; (8000e6c <HAL_GPIO_Init+0x240>)
 8000cf6:	42b8      	cmp	r0, r7
 8000cf8:	f000 80a4 	beq.w	8000e44 <HAL_GPIO_Init+0x218>
 8000cfc:	4f5c      	ldr	r7, [pc, #368]	; (8000e70 <HAL_GPIO_Init+0x244>)
 8000cfe:	42b8      	cmp	r0, r7
 8000d00:	f000 8096 	beq.w	8000e30 <HAL_GPIO_Init+0x204>
 8000d04:	4f5b      	ldr	r7, [pc, #364]	; (8000e74 <HAL_GPIO_Init+0x248>)
 8000d06:	42b8      	cmp	r0, r7
 8000d08:	f000 80a1 	beq.w	8000e4e <HAL_GPIO_Init+0x222>
 8000d0c:	4f5a      	ldr	r7, [pc, #360]	; (8000e78 <HAL_GPIO_Init+0x24c>)
 8000d0e:	42b8      	cmp	r0, r7
 8000d10:	bf0c      	ite	eq
 8000d12:	2709      	moveq	r7, #9
 8000d14:	270a      	movne	r7, #10
 8000d16:	fa07 f202 	lsl.w	r2, r7, r2
 8000d1a:	4311      	orrs	r1, r2
 8000d1c:	f8cc 1008 	str.w	r1, [ip, #8]
 8000d20:	02ef      	lsls	r7, r5, #11
 8000d22:	f8de 2008 	ldr.w	r2, [lr, #8]
 8000d26:	ea6f 0106 	mvn.w	r1, r6
 8000d2a:	f103 0301 	add.w	r3, r3, #1
 8000d2e:	bf54      	ite	pl
 8000d30:	400a      	andpl	r2, r1
 8000d32:	4332      	orrmi	r2, r6
 8000d34:	02af      	lsls	r7, r5, #10
 8000d36:	f8ce 2008 	str.w	r2, [lr, #8]
 8000d3a:	f8de 200c 	ldr.w	r2, [lr, #12]
 8000d3e:	bf54      	ite	pl
 8000d40:	400a      	andpl	r2, r1
 8000d42:	4332      	orrmi	r2, r6
 8000d44:	03af      	lsls	r7, r5, #14
 8000d46:	f8ce 200c 	str.w	r2, [lr, #12]
 8000d4a:	f8de 2004 	ldr.w	r2, [lr, #4]
 8000d4e:	bf54      	ite	pl
 8000d50:	400a      	andpl	r2, r1
 8000d52:	4332      	orrmi	r2, r6
 8000d54:	03ed      	lsls	r5, r5, #15
 8000d56:	f8ce 2004 	str.w	r2, [lr, #4]
 8000d5a:	f8de 2000 	ldr.w	r2, [lr]
 8000d5e:	bf54      	ite	pl
 8000d60:	400a      	andpl	r2, r1
 8000d62:	4332      	orrmi	r2, r6
 8000d64:	2b10      	cmp	r3, #16
 8000d66:	f8ce 2000 	str.w	r2, [lr]
 8000d6a:	f47f af6e 	bne.w	8000c4a <HAL_GPIO_Init+0x1e>
 8000d6e:	b007      	add	sp, #28
 8000d70:	e8bd 8ff0 	ldmia.w	sp!, {r4, r5, r6, r7, r8, r9, sl, fp, pc}
 8000d74:	2103      	movs	r1, #3
 8000d76:	6887      	ldr	r7, [r0, #8]
 8000d78:	f3c5 1800 	ubfx	r8, r5, #4, #1
 8000d7c:	4091      	lsls	r1, r2
 8000d7e:	fa08 f803 	lsl.w	r8, r8, r3
 8000d82:	ea27 0901 	bic.w	r9, r7, r1
 8000d86:	f8da 700c 	ldr.w	r7, [sl, #12]
 8000d8a:	43c9      	mvns	r1, r1
 8000d8c:	4097      	lsls	r7, r2
 8000d8e:	ea47 0709 	orr.w	r7, r7, r9
 8000d92:	6087      	str	r7, [r0, #8]
 8000d94:	6847      	ldr	r7, [r0, #4]
 8000d96:	ea27 0706 	bic.w	r7, r7, r6
 8000d9a:	ea48 0707 	orr.w	r7, r8, r7
 8000d9e:	6047      	str	r7, [r0, #4]
 8000da0:	68c7      	ldr	r7, [r0, #12]
 8000da2:	f1bc 0f02 	cmp.w	ip, #2
 8000da6:	ea07 0801 	and.w	r8, r7, r1
 8000daa:	f8da 7008 	ldr.w	r7, [sl, #8]
 8000dae:	fa07 f702 	lsl.w	r7, r7, r2
 8000db2:	ea47 0708 	orr.w	r7, r7, r8
 8000db6:	60c7      	str	r7, [r0, #12]
 8000db8:	d002      	beq.n	8000dc0 <HAL_GPIO_Init+0x194>
 8000dba:	fa0c f202 	lsl.w	r2, ip, r2
 8000dbe:	e75c      	b.n	8000c7a <HAL_GPIO_Init+0x4e>
 8000dc0:	08df      	lsrs	r7, r3, #3
 8000dc2:	f003 0907 	and.w	r9, r3, #7
 8000dc6:	f04f 080f 	mov.w	r8, #15
 8000dca:	fa0c f202 	lsl.w	r2, ip, r2
 8000dce:	eb00 0787 	add.w	r7, r0, r7, lsl #2
 8000dd2:	ea4f 0c89 	mov.w	ip, r9, lsl #2
 8000dd6:	9701      	str	r7, [sp, #4]
 8000dd8:	f8da 7010 	ldr.w	r7, [sl, #16]
 8000ddc:	fa08 f80c 	lsl.w	r8, r8, ip
 8000de0:	9703      	str	r7, [sp, #12]
 8000de2:	9f01      	ldr	r7, [sp, #4]
 8000de4:	f8d7 9020 	ldr.w	r9, [r7, #32]
 8000de8:	9702      	str	r7, [sp, #8]
 8000dea:	9f03      	ldr	r7, [sp, #12]
 8000dec:	ea29 0808 	bic.w	r8, r9, r8
 8000df0:	fa07 f70c 	lsl.w	r7, r7, ip
 8000df4:	ea47 0c08 	orr.w	ip, r7, r8
 8000df8:	9f02      	ldr	r7, [sp, #8]
 8000dfa:	f8c7 c020 	str.w	ip, [r7, #32]
 8000dfe:	e73c      	b.n	8000c7a <HAL_GPIO_Init+0x4e>
 8000e00:	2103      	movs	r1, #3
 8000e02:	4091      	lsls	r1, r2
 8000e04:	43c9      	mvns	r1, r1
 8000e06:	e7cb      	b.n	8000da0 <HAL_GPIO_Init+0x174>
 8000e08:	2701      	movs	r7, #1
 8000e0a:	fa07 f202 	lsl.w	r2, r7, r2
 8000e0e:	4311      	orrs	r1, r2
 8000e10:	e784      	b.n	8000d1c <HAL_GPIO_Init+0xf0>
 8000e12:	2702      	movs	r7, #2
 8000e14:	fa07 f202 	lsl.w	r2, r7, r2
 8000e18:	4311      	orrs	r1, r2
 8000e1a:	e77f      	b.n	8000d1c <HAL_GPIO_Init+0xf0>
 8000e1c:	2703      	movs	r7, #3
 8000e1e:	fa07 f202 	lsl.w	r2, r7, r2
 8000e22:	4311      	orrs	r1, r2
 8000e24:	e77a      	b.n	8000d1c <HAL_GPIO_Init+0xf0>
 8000e26:	2704      	movs	r7, #4
 8000e28:	fa07 f202 	lsl.w	r2, r7, r2
 8000e2c:	4311      	orrs	r1, r2
 8000e2e:	e775      	b.n	8000d1c <HAL_GPIO_Init+0xf0>
 8000e30:	2707      	movs	r7, #7
 8000e32:	fa07 f202 	lsl.w	r2, r7, r2
 8000e36:	4311      	orrs	r1, r2
 8000e38:	e770      	b.n	8000d1c <HAL_GPIO_Init+0xf0>
 8000e3a:	2705      	movs	r7, #5
 8000e3c:	fa07 f202 	lsl.w	r2, r7, r2
 8000e40:	4311      	orrs	r1, r2
 8000e42:	e76b      	b.n	8000d1c <HAL_GPIO_Init+0xf0>
 8000e44:	2706      	movs	r7, #6
 8000e46:	fa07 f202 	lsl.w	r2, r7, r2
 8000e4a:	4311      	orrs	r1, r2
 8000e4c:	e766      	b.n	8000d1c <HAL_GPIO_Init+0xf0>
 8000e4e:	2708      	movs	r7, #8
 8000e50:	fa07 f202 	lsl.w	r2, r7, r2
 8000e54:	4311      	orrs	r1, r2
 8000e56:	e761      	b.n	8000d1c <HAL_GPIO_Init+0xf0>
 8000e58:	40020000 	.word	0x40020000
 8000e5c:	40020800 	.word	0x40020800
 8000e60:	40020c00 	.word	0x40020c00
 8000e64:	40021000 	.word	0x40021000
 8000e68:	40021400 	.word	0x40021400
 8000e6c:	40021800 	.word	0x40021800
 8000e70:	40021c00 	.word	0x40021c00
 8000e74:	40022000 	.word	0x40022000
 8000e78:	40022400 	.word	0x40022400
 8000e7c:	40023800 	.word	0x40023800
 8000e80:	40013c00 	.word	0x40013c00

08000e84 <HAL_GPIO_WritePin>:
 8000e84:	b902      	cbnz	r2, 8000e88 <HAL_GPIO_WritePin+0x4>
 8000e86:	0409      	lsls	r1, r1, #16
 8000e88:	6181      	str	r1, [r0, #24]
 8000e8a:	4770      	bx	lr

08000e8c <LTDC_SetConfig>:
 8000e8c:	01d2      	lsls	r2, r2, #7
 8000e8e:	f04f 0c00 	mov.w	ip, #0
 8000e92:	e92d 4ff0 	stmdb	sp!, {r4, r5, r6, r7, r8, r9, sl, fp, lr}
 8000e96:	3284      	adds	r2, #132	; 0x84
 8000e98:	6804      	ldr	r4, [r0, #0]
 8000e9a:	6848      	ldr	r0, [r1, #4]
 8000e9c:	b083      	sub	sp, #12
 8000e9e:	18a3      	adds	r3, r4, r2
 8000ea0:	68e5      	ldr	r5, [r4, #12]
 8000ea2:	f8d1 800c 	ldr.w	r8, [r1, #12]
 8000ea6:	f8d3 e004 	ldr.w	lr, [r3, #4]
 8000eaa:	f3c5 450b 	ubfx	r5, r5, #16, #12
 8000eae:	680e      	ldr	r6, [r1, #0]
 8000eb0:	eb05 0a00 	add.w	sl, r5, r0
 8000eb4:	f40e 4570 	and.w	r5, lr, #61440	; 0xf000
 8000eb8:	9001      	str	r0, [sp, #4]
 8000eba:	f106 0b01 	add.w	fp, r6, #1
 8000ebe:	6888      	ldr	r0, [r1, #8]
 8000ec0:	605d      	str	r5, [r3, #4]
 8000ec2:	68e5      	ldr	r5, [r4, #12]
 8000ec4:	f100 0901 	add.w	r9, r0, #1
 8000ec8:	f8d1 e010 	ldr.w	lr, [r1, #16]
 8000ecc:	f3c5 450b 	ubfx	r5, r5, #16, #12
 8000ed0:	4f38      	ldr	r7, [pc, #224]	; (8000fb4 <LTDC_SetConfig+0x128>)
 8000ed2:	445d      	add	r5, fp
 8000ed4:	f8d1 b018 	ldr.w	fp, [r1, #24]
 8000ed8:	ea45 450a 	orr.w	r5, r5, sl, lsl #16
 8000edc:	605d      	str	r5, [r3, #4]
 8000ede:	f8d4 a00c 	ldr.w	sl, [r4, #12]
 8000ee2:	689d      	ldr	r5, [r3, #8]
 8000ee4:	f3ca 0a0a 	ubfx	sl, sl, #0, #11
 8000ee8:	f405 4570 	and.w	r5, r5, #61440	; 0xf000
 8000eec:	44c2      	add	sl, r8
 8000eee:	f8d1 8014 	ldr.w	r8, [r1, #20]
 8000ef2:	609d      	str	r5, [r3, #8]
 8000ef4:	68e5      	ldr	r5, [r4, #12]
 8000ef6:	f3c5 050a 	ubfx	r5, r5, #0, #11
 8000efa:	444d      	add	r5, r9
 8000efc:	ea45 450a 	orr.w	r5, r5, sl, lsl #16
 8000f00:	609d      	str	r5, [r3, #8]
 8000f02:	691d      	ldr	r5, [r3, #16]
 8000f04:	f025 0507 	bic.w	r5, r5, #7
 8000f08:	611d      	str	r5, [r3, #16]
 8000f0a:	f8c3 e010 	str.w	lr, [r3, #16]
 8000f0e:	699d      	ldr	r5, [r3, #24]
 8000f10:	f891 a031 	ldrb.w	sl, [r1, #49]	; 0x31
 8000f14:	f891 9032 	ldrb.w	r9, [r1, #50]	; 0x32
 8000f18:	f8c3 c018 	str.w	ip, [r3, #24]
 8000f1c:	f891 5030 	ldrb.w	r5, [r1, #48]	; 0x30
 8000f20:	ea45 650b 	orr.w	r5, r5, fp, lsl #24
 8000f24:	ea45 250a 	orr.w	r5, r5, sl, lsl #8
 8000f28:	ea45 4509 	orr.w	r5, r5, r9, lsl #16
 8000f2c:	619d      	str	r5, [r3, #24]
 8000f2e:	695d      	ldr	r5, [r3, #20]
 8000f30:	f025 05ff 	bic.w	r5, r5, #255	; 0xff
 8000f34:	615d      	str	r5, [r3, #20]
 8000f36:	f8c3 8014 	str.w	r8, [r3, #20]
 8000f3a:	69dd      	ldr	r5, [r3, #28]
 8000f3c:	402f      	ands	r7, r5
 8000f3e:	69cd      	ldr	r5, [r1, #28]
 8000f40:	61df      	str	r7, [r3, #28]
 8000f42:	e9d1 0708 	ldrd	r0, r7, [r1, #32]
 8000f46:	4305      	orrs	r5, r0
 8000f48:	61dd      	str	r5, [r3, #28]
 8000f4a:	6a9d      	ldr	r5, [r3, #40]	; 0x28
 8000f4c:	f8c3 c028 	str.w	ip, [r3, #40]	; 0x28
 8000f50:	629f      	str	r7, [r3, #40]	; 0x28
 8000f52:	f1be 0f00 	cmp.w	lr, #0
 8000f56:	d00b      	beq.n	8000f70 <LTDC_SetConfig+0xe4>
 8000f58:	f1be 0f01 	cmp.w	lr, #1
 8000f5c:	d026      	beq.n	8000fac <LTDC_SetConfig+0x120>
 8000f5e:	f1ae 0502 	sub.w	r5, lr, #2
 8000f62:	2d02      	cmp	r5, #2
 8000f64:	d902      	bls.n	8000f6c <LTDC_SetConfig+0xe0>
 8000f66:	f1be 0f07 	cmp.w	lr, #7
 8000f6a:	d121      	bne.n	8000fb0 <LTDC_SetConfig+0x124>
 8000f6c:	2702      	movs	r7, #2
 8000f6e:	e000      	b.n	8000f72 <LTDC_SetConfig+0xe6>
 8000f70:	2704      	movs	r7, #4
 8000f72:	9801      	ldr	r0, [sp, #4]
 8000f74:	6add      	ldr	r5, [r3, #44]	; 0x2c
 8000f76:	1b80      	subs	r0, r0, r6
 8000f78:	f005 25e0 	and.w	r5, r5, #3758153728	; 0xe000e000
 8000f7c:	fb07 f000 	mul.w	r0, r7, r0
 8000f80:	e9d1 6c0a 	ldrd	r6, ip, [r1, #40]	; 0x28
 8000f84:	3003      	adds	r0, #3
 8000f86:	62dd      	str	r5, [r3, #44]	; 0x2c
 8000f88:	fb06 f607 	mul.w	r6, r6, r7
 8000f8c:	490a      	ldr	r1, [pc, #40]	; (8000fb8 <LTDC_SetConfig+0x12c>)
 8000f8e:	ea40 4006 	orr.w	r0, r0, r6, lsl #16
 8000f92:	62d8      	str	r0, [r3, #44]	; 0x2c
 8000f94:	6b18      	ldr	r0, [r3, #48]	; 0x30
 8000f96:	4001      	ands	r1, r0
 8000f98:	6319      	str	r1, [r3, #48]	; 0x30
 8000f9a:	f8c3 c030 	str.w	ip, [r3, #48]	; 0x30
 8000f9e:	58a3      	ldr	r3, [r4, r2]
 8000fa0:	f043 0301 	orr.w	r3, r3, #1
 8000fa4:	50a3      	str	r3, [r4, r2]
 8000fa6:	b003      	add	sp, #12
 8000fa8:	e8bd 8ff0 	ldmia.w	sp!, {r4, r5, r6, r7, r8, r9, sl, fp, pc}
 8000fac:	2703      	movs	r7, #3
 8000fae:	e7e0      	b.n	8000f72 <LTDC_SetConfig+0xe6>
 8000fb0:	2701      	movs	r7, #1
 8000fb2:	e7de      	b.n	8000f72 <LTDC_SetConfig+0xe6>
 8000fb4:	fffff8f8 	.word	0xfffff8f8
 8000fb8:	fffff800 	.word	0xfffff800

08000fbc <HAL_LTDC_Init>:
 8000fbc:	2800      	cmp	r0, #0
 8000fbe:	d06d      	beq.n	800109c <HAL_LTDC_Init+0xe0>
 8000fc0:	b5f8      	push	{r3, r4, r5, r6, r7, lr}
 8000fc2:	f890 30a1 	ldrb.w	r3, [r0, #161]	; 0xa1
 8000fc6:	4604      	mov	r4, r0
 8000fc8:	f003 02ff 	and.w	r2, r3, #255	; 0xff
 8000fcc:	2b00      	cmp	r3, #0
 8000fce:	d060      	beq.n	8001092 <HAL_LTDC_Init+0xd6>
 8000fd0:	68a0      	ldr	r0, [r4, #8]
 8000fd2:	2502      	movs	r5, #2
 8000fd4:	68e6      	ldr	r6, [r4, #12]
 8000fd6:	2100      	movs	r1, #0
 8000fd8:	f884 50a1 	strb.w	r5, [r4, #161]	; 0xa1
 8000fdc:	6925      	ldr	r5, [r4, #16]
 8000fde:	6967      	ldr	r7, [r4, #20]
 8000fe0:	f8d4 c018 	ldr.w	ip, [r4, #24]
 8000fe4:	e9d4 3200 	ldrd	r3, r2, [r4]
 8000fe8:	4302      	orrs	r2, r0
 8000fea:	6998      	ldr	r0, [r3, #24]
 8000fec:	4332      	orrs	r2, r6
 8000fee:	f020 4070 	bic.w	r0, r0, #4026531840	; 0xf0000000
 8000ff2:	4e2b      	ldr	r6, [pc, #172]	; (80010a0 <HAL_LTDC_Init+0xe4>)
 8000ff4:	6198      	str	r0, [r3, #24]
 8000ff6:	432a      	orrs	r2, r5
 8000ff8:	6998      	ldr	r0, [r3, #24]
 8000ffa:	2501      	movs	r5, #1
 8000ffc:	4302      	orrs	r2, r0
 8000ffe:	619a      	str	r2, [r3, #24]
 8001000:	689a      	ldr	r2, [r3, #8]
 8001002:	4032      	ands	r2, r6
 8001004:	609a      	str	r2, [r3, #8]
 8001006:	6898      	ldr	r0, [r3, #8]
 8001008:	ea40 4007 	orr.w	r0, r0, r7, lsl #16
 800100c:	69e7      	ldr	r7, [r4, #28]
 800100e:	ea40 000c 	orr.w	r0, r0, ip
 8001012:	f8d4 c020 	ldr.w	ip, [r4, #32]
 8001016:	6098      	str	r0, [r3, #8]
 8001018:	68d8      	ldr	r0, [r3, #12]
 800101a:	4030      	ands	r0, r6
 800101c:	60d8      	str	r0, [r3, #12]
 800101e:	68da      	ldr	r2, [r3, #12]
 8001020:	ea42 4207 	orr.w	r2, r2, r7, lsl #16
 8001024:	6a67      	ldr	r7, [r4, #36]	; 0x24
 8001026:	ea42 020c 	orr.w	r2, r2, ip
 800102a:	f8d4 c028 	ldr.w	ip, [r4, #40]	; 0x28
 800102e:	60da      	str	r2, [r3, #12]
 8001030:	691a      	ldr	r2, [r3, #16]
 8001032:	4032      	ands	r2, r6
 8001034:	611a      	str	r2, [r3, #16]
 8001036:	6918      	ldr	r0, [r3, #16]
 8001038:	ea40 4007 	orr.w	r0, r0, r7, lsl #16
 800103c:	6ae7      	ldr	r7, [r4, #44]	; 0x2c
 800103e:	ea40 000c 	orr.w	r0, r0, ip
 8001042:	6118      	str	r0, [r3, #16]
 8001044:	6958      	ldr	r0, [r3, #20]
 8001046:	4006      	ands	r6, r0
 8001048:	615e      	str	r6, [r3, #20]
 800104a:	695a      	ldr	r2, [r3, #20]
 800104c:	6b20      	ldr	r0, [r4, #48]	; 0x30
 800104e:	ea42 4207 	orr.w	r2, r2, r7, lsl #16
 8001052:	4302      	orrs	r2, r0
 8001054:	615a      	str	r2, [r3, #20]
 8001056:	6ad8      	ldr	r0, [r3, #44]	; 0x2c
 8001058:	f894 7035 	ldrb.w	r7, [r4, #53]	; 0x35
 800105c:	f000 407f 	and.w	r0, r0, #4278190080	; 0xff000000
 8001060:	f894 6036 	ldrb.w	r6, [r4, #54]	; 0x36
 8001064:	62d8      	str	r0, [r3, #44]	; 0x2c
 8001066:	6ad8      	ldr	r0, [r3, #44]	; 0x2c
 8001068:	f894 2034 	ldrb.w	r2, [r4, #52]	; 0x34
 800106c:	4302      	orrs	r2, r0
 800106e:	4608      	mov	r0, r1
 8001070:	ea42 2207 	orr.w	r2, r2, r7, lsl #8
 8001074:	ea42 4206 	orr.w	r2, r2, r6, lsl #16
 8001078:	62da      	str	r2, [r3, #44]	; 0x2c
 800107a:	6b5a      	ldr	r2, [r3, #52]	; 0x34
 800107c:	f042 0206 	orr.w	r2, r2, #6
 8001080:	635a      	str	r2, [r3, #52]	; 0x34
 8001082:	699a      	ldr	r2, [r3, #24]
 8001084:	432a      	orrs	r2, r5
 8001086:	619a      	str	r2, [r3, #24]
 8001088:	f8c4 10a4 	str.w	r1, [r4, #164]	; 0xa4
 800108c:	f884 50a1 	strb.w	r5, [r4, #161]	; 0xa1
 8001090:	bdf8      	pop	{r3, r4, r5, r6, r7, pc}
 8001092:	f880 20a0 	strb.w	r2, [r0, #160]	; 0xa0
 8001096:	f7ff fbef 	bl	8000878 <HAL_LTDC_MspInit>
 800109a:	e799      	b.n	8000fd0 <HAL_LTDC_Init+0x14>
 800109c:	2001      	movs	r0, #1
 800109e:	4770      	bx	lr
 80010a0:	f000f800 	.word	0xf000f800

080010a4 <HAL_LTDC_ConfigLayer>:
 80010a4:	f890 30a0 	ldrb.w	r3, [r0, #160]	; 0xa0
 80010a8:	2b01      	cmp	r3, #1
 80010aa:	d028      	beq.n	80010fe <HAL_LTDC_ConfigLayer+0x5a>
 80010ac:	2302      	movs	r3, #2
 80010ae:	4694      	mov	ip, r2
 80010b0:	e92d 41f0 	stmdb	sp!, {r4, r5, r6, r7, r8, lr}
 80010b4:	2434      	movs	r4, #52	; 0x34
 80010b6:	f04f 0801 	mov.w	r8, #1
 80010ba:	460d      	mov	r5, r1
 80010bc:	f880 30a1 	strb.w	r3, [r0, #161]	; 0xa1
 80010c0:	fb04 0402 	mla	r4, r4, r2, r0
 80010c4:	4606      	mov	r6, r0
 80010c6:	f880 80a0 	strb.w	r8, [r0, #160]	; 0xa0
 80010ca:	460f      	mov	r7, r1
 80010cc:	3438      	adds	r4, #56	; 0x38
 80010ce:	cd0f      	ldmia	r5!, {r0, r1, r2, r3}
 80010d0:	c40f      	stmia	r4!, {r0, r1, r2, r3}
 80010d2:	cd0f      	ldmia	r5!, {r0, r1, r2, r3}
 80010d4:	c40f      	stmia	r4!, {r0, r1, r2, r3}
 80010d6:	cd0f      	ldmia	r5!, {r0, r1, r2, r3}
 80010d8:	c40f      	stmia	r4!, {r0, r1, r2, r3}
 80010da:	682b      	ldr	r3, [r5, #0]
 80010dc:	4662      	mov	r2, ip
 80010de:	4630      	mov	r0, r6
 80010e0:	4639      	mov	r1, r7
 80010e2:	6023      	str	r3, [r4, #0]
 80010e4:	f7ff fed2 	bl	8000e8c <LTDC_SetConfig>
 80010e8:	2300      	movs	r3, #0
 80010ea:	6832      	ldr	r2, [r6, #0]
 80010ec:	4618      	mov	r0, r3
 80010ee:	f8c2 8024 	str.w	r8, [r2, #36]	; 0x24
 80010f2:	f886 80a1 	strb.w	r8, [r6, #161]	; 0xa1
 80010f6:	f886 30a0 	strb.w	r3, [r6, #160]	; 0xa0
 80010fa:	e8bd 81f0 	ldmia.w	sp!, {r4, r5, r6, r7, r8, pc}
 80010fe:	2002      	movs	r0, #2
 8001100:	4770      	bx	lr
 8001102:	bf00      	nop

08001104 <HAL_PWREx_EnableOverDrive>:
 8001104:	4a1b      	ldr	r2, [pc, #108]	; (8001174 <HAL_PWREx_EnableOverDrive+0x70>)
 8001106:	4b1c      	ldr	r3, [pc, #112]	; (8001178 <HAL_PWREx_EnableOverDrive+0x74>)
 8001108:	6c11      	ldr	r1, [r2, #64]	; 0x40
 800110a:	f041 5180 	orr.w	r1, r1, #268435456	; 0x10000000
 800110e:	b570      	push	{r4, r5, r6, lr}
 8001110:	6411      	str	r1, [r2, #64]	; 0x40
 8001112:	b082      	sub	sp, #8
 8001114:	6c12      	ldr	r2, [r2, #64]	; 0x40
 8001116:	461d      	mov	r5, r3
 8001118:	f002 5280 	and.w	r2, r2, #268435456	; 0x10000000
 800111c:	9201      	str	r2, [sp, #4]
 800111e:	9a01      	ldr	r2, [sp, #4]
 8001120:	681a      	ldr	r2, [r3, #0]
 8001122:	f442 3280 	orr.w	r2, r2, #65536	; 0x10000
 8001126:	601a      	str	r2, [r3, #0]
 8001128:	f7ff fcca 	bl	8000ac0 <HAL_GetTick>
 800112c:	4604      	mov	r4, r0
 800112e:	e005      	b.n	800113c <HAL_PWREx_EnableOverDrive+0x38>
 8001130:	f7ff fcc6 	bl	8000ac0 <HAL_GetTick>
 8001134:	1b00      	subs	r0, r0, r4
 8001136:	f5b0 7f7a 	cmp.w	r0, #1000	; 0x3e8
 800113a:	d817      	bhi.n	800116c <HAL_PWREx_EnableOverDrive+0x68>
 800113c:	686b      	ldr	r3, [r5, #4]
 800113e:	03da      	lsls	r2, r3, #15
 8001140:	d5f6      	bpl.n	8001130 <HAL_PWREx_EnableOverDrive+0x2c>
 8001142:	682b      	ldr	r3, [r5, #0]
 8001144:	4e0c      	ldr	r6, [pc, #48]	; (8001178 <HAL_PWREx_EnableOverDrive+0x74>)
 8001146:	f443 3300 	orr.w	r3, r3, #131072	; 0x20000
 800114a:	602b      	str	r3, [r5, #0]
 800114c:	f7ff fcb8 	bl	8000ac0 <HAL_GetTick>
 8001150:	4604      	mov	r4, r0
 8001152:	e005      	b.n	8001160 <HAL_PWREx_EnableOverDrive+0x5c>
 8001154:	f7ff fcb4 	bl	8000ac0 <HAL_GetTick>
 8001158:	1b00      	subs	r0, r0, r4
 800115a:	f5b0 7f7a 	cmp.w	r0, #1000	; 0x3e8
 800115e:	d805      	bhi.n	800116c <HAL_PWREx_EnableOverDrive+0x68>
 8001160:	6873      	ldr	r3, [r6, #4]
 8001162:	039b      	lsls	r3, r3, #14
 8001164:	d5f6      	bpl.n	8001154 <HAL_PWREx_EnableOverDrive+0x50>
 8001166:	2000      	movs	r0, #0
 8001168:	b002      	add	sp, #8
 800116a:	bd70      	pop	{r4, r5, r6, pc}
 800116c:	2003      	movs	r0, #3
 800116e:	b002      	add	sp, #8
 8001170:	bd70      	pop	{r4, r5, r6, pc}
 8001172:	bf00      	nop
 8001174:	40023800 	.word	0x40023800
 8001178:	40007000 	.word	0x40007000

0800117c <HAL_RCC_OscConfig>:
 800117c:	2800      	cmp	r0, #0
 800117e:	f000 81c1 	beq.w	8001504 <HAL_RCC_OscConfig+0x388>
 8001182:	6803      	ldr	r3, [r0, #0]
 8001184:	e92d 41f0 	stmdb	sp!, {r4, r5, r6, r7, r8, lr}
 8001188:	07dd      	lsls	r5, r3, #31
 800118a:	b082      	sub	sp, #8
 800118c:	4604      	mov	r4, r0
 800118e:	d535      	bpl.n	80011fc <HAL_RCC_OscConfig+0x80>
 8001190:	49ac      	ldr	r1, [pc, #688]	; (8001444 <HAL_RCC_OscConfig+0x2c8>)
 8001192:	688a      	ldr	r2, [r1, #8]
 8001194:	f002 020c 	and.w	r2, r2, #12
 8001198:	2a04      	cmp	r2, #4
 800119a:	f000 80e6 	beq.w	800136a <HAL_RCC_OscConfig+0x1ee>
 800119e:	688a      	ldr	r2, [r1, #8]
 80011a0:	f002 020c 	and.w	r2, r2, #12
 80011a4:	2a08      	cmp	r2, #8
 80011a6:	f000 80dc 	beq.w	8001362 <HAL_RCC_OscConfig+0x1e6>
 80011aa:	6863      	ldr	r3, [r4, #4]
 80011ac:	f5b3 3f80 	cmp.w	r3, #65536	; 0x10000
 80011b0:	d010      	beq.n	80011d4 <HAL_RCC_OscConfig+0x58>
 80011b2:	2b00      	cmp	r3, #0
 80011b4:	f000 8104 	beq.w	80013c0 <HAL_RCC_OscConfig+0x244>
 80011b8:	f5b3 2fa0 	cmp.w	r3, #327680	; 0x50000
 80011bc:	4ba1      	ldr	r3, [pc, #644]	; (8001444 <HAL_RCC_OscConfig+0x2c8>)
 80011be:	681a      	ldr	r2, [r3, #0]
 80011c0:	f000 8190 	beq.w	80014e4 <HAL_RCC_OscConfig+0x368>
 80011c4:	f422 3280 	bic.w	r2, r2, #65536	; 0x10000
 80011c8:	601a      	str	r2, [r3, #0]
 80011ca:	681a      	ldr	r2, [r3, #0]
 80011cc:	f422 2280 	bic.w	r2, r2, #262144	; 0x40000
 80011d0:	601a      	str	r2, [r3, #0]
 80011d2:	e004      	b.n	80011de <HAL_RCC_OscConfig+0x62>
 80011d4:	4a9b      	ldr	r2, [pc, #620]	; (8001444 <HAL_RCC_OscConfig+0x2c8>)
 80011d6:	6813      	ldr	r3, [r2, #0]
 80011d8:	f443 3380 	orr.w	r3, r3, #65536	; 0x10000
 80011dc:	6013      	str	r3, [r2, #0]
 80011de:	f7ff fc6f 	bl	8000ac0 <HAL_GetTick>
 80011e2:	4e98      	ldr	r6, [pc, #608]	; (8001444 <HAL_RCC_OscConfig+0x2c8>)
 80011e4:	4605      	mov	r5, r0
 80011e6:	e005      	b.n	80011f4 <HAL_RCC_OscConfig+0x78>
 80011e8:	f7ff fc6a 	bl	8000ac0 <HAL_GetTick>
 80011ec:	1b40      	subs	r0, r0, r5
 80011ee:	2864      	cmp	r0, #100	; 0x64
 80011f0:	f200 80e2 	bhi.w	80013b8 <HAL_RCC_OscConfig+0x23c>
 80011f4:	6833      	ldr	r3, [r6, #0]
 80011f6:	039a      	lsls	r2, r3, #14
 80011f8:	d5f6      	bpl.n	80011e8 <HAL_RCC_OscConfig+0x6c>
 80011fa:	6823      	ldr	r3, [r4, #0]
 80011fc:	079f      	lsls	r7, r3, #30
 80011fe:	d529      	bpl.n	8001254 <HAL_RCC_OscConfig+0xd8>
 8001200:	4a90      	ldr	r2, [pc, #576]	; (8001444 <HAL_RCC_OscConfig+0x2c8>)
 8001202:	6891      	ldr	r1, [r2, #8]
 8001204:	f011 0f0c 	tst.w	r1, #12
 8001208:	f000 8082 	beq.w	8001310 <HAL_RCC_OscConfig+0x194>
 800120c:	6891      	ldr	r1, [r2, #8]
 800120e:	f001 010c 	and.w	r1, r1, #12
 8001212:	2908      	cmp	r1, #8
 8001214:	d079      	beq.n	800130a <HAL_RCC_OscConfig+0x18e>
 8001216:	68e3      	ldr	r3, [r4, #12]
 8001218:	2b00      	cmp	r3, #0
 800121a:	f000 8109 	beq.w	8001430 <HAL_RCC_OscConfig+0x2b4>
 800121e:	4b89      	ldr	r3, [pc, #548]	; (8001444 <HAL_RCC_OscConfig+0x2c8>)
 8001220:	681a      	ldr	r2, [r3, #0]
 8001222:	461e      	mov	r6, r3
 8001224:	f042 0201 	orr.w	r2, r2, #1
 8001228:	601a      	str	r2, [r3, #0]
 800122a:	f7ff fc49 	bl	8000ac0 <HAL_GetTick>
 800122e:	4605      	mov	r5, r0
 8001230:	e005      	b.n	800123e <HAL_RCC_OscConfig+0xc2>
 8001232:	f7ff fc45 	bl	8000ac0 <HAL_GetTick>
 8001236:	1b40      	subs	r0, r0, r5
 8001238:	2802      	cmp	r0, #2
 800123a:	f200 80bd 	bhi.w	80013b8 <HAL_RCC_OscConfig+0x23c>
 800123e:	6833      	ldr	r3, [r6, #0]
 8001240:	0798      	lsls	r0, r3, #30
 8001242:	d5f6      	bpl.n	8001232 <HAL_RCC_OscConfig+0xb6>
 8001244:	6833      	ldr	r3, [r6, #0]
 8001246:	6922      	ldr	r2, [r4, #16]
 8001248:	f023 03f8 	bic.w	r3, r3, #248	; 0xf8
 800124c:	ea43 03c2 	orr.w	r3, r3, r2, lsl #3
 8001250:	6033      	str	r3, [r6, #0]
 8001252:	6823      	ldr	r3, [r4, #0]
 8001254:	071a      	lsls	r2, r3, #28
 8001256:	d41f      	bmi.n	8001298 <HAL_RCC_OscConfig+0x11c>
 8001258:	075d      	lsls	r5, r3, #29
 800125a:	d535      	bpl.n	80012c8 <HAL_RCC_OscConfig+0x14c>
 800125c:	4b79      	ldr	r3, [pc, #484]	; (8001444 <HAL_RCC_OscConfig+0x2c8>)
 800125e:	6c1a      	ldr	r2, [r3, #64]	; 0x40
 8001260:	00d0      	lsls	r0, r2, #3
 8001262:	d573      	bpl.n	800134c <HAL_RCC_OscConfig+0x1d0>
 8001264:	2500      	movs	r5, #0
 8001266:	4b78      	ldr	r3, [pc, #480]	; (8001448 <HAL_RCC_OscConfig+0x2cc>)
 8001268:	681a      	ldr	r2, [r3, #0]
 800126a:	05d1      	lsls	r1, r2, #23
 800126c:	f140 8093 	bpl.w	8001396 <HAL_RCC_OscConfig+0x21a>
 8001270:	68a3      	ldr	r3, [r4, #8]
 8001272:	2b01      	cmp	r3, #1
 8001274:	f000 80f4 	beq.w	8001460 <HAL_RCC_OscConfig+0x2e4>
 8001278:	2b00      	cmp	r3, #0
 800127a:	f000 80b8 	beq.w	80013ee <HAL_RCC_OscConfig+0x272>
 800127e:	2b05      	cmp	r3, #5
 8001280:	4b70      	ldr	r3, [pc, #448]	; (8001444 <HAL_RCC_OscConfig+0x2c8>)
 8001282:	6f1a      	ldr	r2, [r3, #112]	; 0x70
 8001284:	f000 8136 	beq.w	80014f4 <HAL_RCC_OscConfig+0x378>
 8001288:	f022 0201 	bic.w	r2, r2, #1
 800128c:	671a      	str	r2, [r3, #112]	; 0x70
 800128e:	6f1a      	ldr	r2, [r3, #112]	; 0x70
 8001290:	f022 0204 	bic.w	r2, r2, #4
 8001294:	671a      	str	r2, [r3, #112]	; 0x70
 8001296:	e0e8      	b.n	800146a <HAL_RCC_OscConfig+0x2ee>
 8001298:	6963      	ldr	r3, [r4, #20]
 800129a:	2b00      	cmp	r3, #0
 800129c:	d043      	beq.n	8001326 <HAL_RCC_OscConfig+0x1aa>
 800129e:	4b69      	ldr	r3, [pc, #420]	; (8001444 <HAL_RCC_OscConfig+0x2c8>)
 80012a0:	6f5a      	ldr	r2, [r3, #116]	; 0x74
 80012a2:	461e      	mov	r6, r3
 80012a4:	f042 0201 	orr.w	r2, r2, #1
 80012a8:	675a      	str	r2, [r3, #116]	; 0x74
 80012aa:	f7ff fc09 	bl	8000ac0 <HAL_GetTick>
 80012ae:	4605      	mov	r5, r0
 80012b0:	e004      	b.n	80012bc <HAL_RCC_OscConfig+0x140>
 80012b2:	f7ff fc05 	bl	8000ac0 <HAL_GetTick>
 80012b6:	1b40      	subs	r0, r0, r5
 80012b8:	2802      	cmp	r0, #2
 80012ba:	d87d      	bhi.n	80013b8 <HAL_RCC_OscConfig+0x23c>
 80012bc:	6f73      	ldr	r3, [r6, #116]	; 0x74
 80012be:	079b      	lsls	r3, r3, #30
 80012c0:	d5f7      	bpl.n	80012b2 <HAL_RCC_OscConfig+0x136>
 80012c2:	6823      	ldr	r3, [r4, #0]
 80012c4:	075d      	lsls	r5, r3, #29
 80012c6:	d4c9      	bmi.n	800125c <HAL_RCC_OscConfig+0xe0>
 80012c8:	69a0      	ldr	r0, [r4, #24]
 80012ca:	b1d0      	cbz	r0, 8001302 <HAL_RCC_OscConfig+0x186>
 80012cc:	4b5d      	ldr	r3, [pc, #372]	; (8001444 <HAL_RCC_OscConfig+0x2c8>)
 80012ce:	689a      	ldr	r2, [r3, #8]
 80012d0:	f002 020c 	and.w	r2, r2, #12
 80012d4:	2a08      	cmp	r2, #8
 80012d6:	f000 80db 	beq.w	8001490 <HAL_RCC_OscConfig+0x314>
 80012da:	681a      	ldr	r2, [r3, #0]
 80012dc:	2802      	cmp	r0, #2
 80012de:	461d      	mov	r5, r3
 80012e0:	f022 7280 	bic.w	r2, r2, #16777216	; 0x1000000
 80012e4:	601a      	str	r2, [r3, #0]
 80012e6:	f000 810f 	beq.w	8001508 <HAL_RCC_OscConfig+0x38c>
 80012ea:	f7ff fbe9 	bl	8000ac0 <HAL_GetTick>
 80012ee:	4604      	mov	r4, r0
 80012f0:	e004      	b.n	80012fc <HAL_RCC_OscConfig+0x180>
 80012f2:	f7ff fbe5 	bl	8000ac0 <HAL_GetTick>
 80012f6:	1b00      	subs	r0, r0, r4
 80012f8:	2802      	cmp	r0, #2
 80012fa:	d85d      	bhi.n	80013b8 <HAL_RCC_OscConfig+0x23c>
 80012fc:	682b      	ldr	r3, [r5, #0]
 80012fe:	019b      	lsls	r3, r3, #6
 8001300:	d4f7      	bmi.n	80012f2 <HAL_RCC_OscConfig+0x176>
 8001302:	2000      	movs	r0, #0
 8001304:	b002      	add	sp, #8
 8001306:	e8bd 81f0 	ldmia.w	sp!, {r4, r5, r6, r7, r8, pc}
 800130a:	6852      	ldr	r2, [r2, #4]
 800130c:	0256      	lsls	r6, r2, #9
 800130e:	d482      	bmi.n	8001216 <HAL_RCC_OscConfig+0x9a>
 8001310:	4a4c      	ldr	r2, [pc, #304]	; (8001444 <HAL_RCC_OscConfig+0x2c8>)
 8001312:	6812      	ldr	r2, [r2, #0]
 8001314:	0795      	lsls	r5, r2, #30
 8001316:	d532      	bpl.n	800137e <HAL_RCC_OscConfig+0x202>
 8001318:	68e2      	ldr	r2, [r4, #12]
 800131a:	2a01      	cmp	r2, #1
 800131c:	d02f      	beq.n	800137e <HAL_RCC_OscConfig+0x202>
 800131e:	2001      	movs	r0, #1
 8001320:	b002      	add	sp, #8
 8001322:	e8bd 81f0 	ldmia.w	sp!, {r4, r5, r6, r7, r8, pc}
 8001326:	4b47      	ldr	r3, [pc, #284]	; (8001444 <HAL_RCC_OscConfig+0x2c8>)
 8001328:	6f5a      	ldr	r2, [r3, #116]	; 0x74
 800132a:	461e      	mov	r6, r3
 800132c:	f022 0201 	bic.w	r2, r2, #1
 8001330:	675a      	str	r2, [r3, #116]	; 0x74
 8001332:	f7ff fbc5 	bl	8000ac0 <HAL_GetTick>
 8001336:	4605      	mov	r5, r0
 8001338:	e004      	b.n	8001344 <HAL_RCC_OscConfig+0x1c8>
 800133a:	f7ff fbc1 	bl	8000ac0 <HAL_GetTick>
 800133e:	1b40      	subs	r0, r0, r5
 8001340:	2802      	cmp	r0, #2
 8001342:	d839      	bhi.n	80013b8 <HAL_RCC_OscConfig+0x23c>
 8001344:	6f73      	ldr	r3, [r6, #116]	; 0x74
 8001346:	079f      	lsls	r7, r3, #30
 8001348:	d4f7      	bmi.n	800133a <HAL_RCC_OscConfig+0x1be>
 800134a:	e7ba      	b.n	80012c2 <HAL_RCC_OscConfig+0x146>
 800134c:	6c1a      	ldr	r2, [r3, #64]	; 0x40
 800134e:	2501      	movs	r5, #1
 8001350:	f042 5280 	orr.w	r2, r2, #268435456	; 0x10000000
 8001354:	641a      	str	r2, [r3, #64]	; 0x40
 8001356:	6c1b      	ldr	r3, [r3, #64]	; 0x40
 8001358:	f003 5380 	and.w	r3, r3, #268435456	; 0x10000000
 800135c:	9301      	str	r3, [sp, #4]
 800135e:	9b01      	ldr	r3, [sp, #4]
 8001360:	e781      	b.n	8001266 <HAL_RCC_OscConfig+0xea>
 8001362:	684a      	ldr	r2, [r1, #4]
 8001364:	0250      	lsls	r0, r2, #9
 8001366:	f57f af20 	bpl.w	80011aa <HAL_RCC_OscConfig+0x2e>
 800136a:	4a36      	ldr	r2, [pc, #216]	; (8001444 <HAL_RCC_OscConfig+0x2c8>)
 800136c:	6812      	ldr	r2, [r2, #0]
 800136e:	0391      	lsls	r1, r2, #14
 8001370:	f57f af44 	bpl.w	80011fc <HAL_RCC_OscConfig+0x80>
 8001374:	6862      	ldr	r2, [r4, #4]
 8001376:	2a00      	cmp	r2, #0
 8001378:	f47f af40 	bne.w	80011fc <HAL_RCC_OscConfig+0x80>
 800137c:	e7cf      	b.n	800131e <HAL_RCC_OscConfig+0x1a2>
 800137e:	4931      	ldr	r1, [pc, #196]	; (8001444 <HAL_RCC_OscConfig+0x2c8>)
 8001380:	6920      	ldr	r0, [r4, #16]
 8001382:	680a      	ldr	r2, [r1, #0]
 8001384:	f022 02f8 	bic.w	r2, r2, #248	; 0xf8
 8001388:	ea42 02c0 	orr.w	r2, r2, r0, lsl #3
 800138c:	600a      	str	r2, [r1, #0]
 800138e:	071a      	lsls	r2, r3, #28
 8001390:	f57f af62 	bpl.w	8001258 <HAL_RCC_OscConfig+0xdc>
 8001394:	e780      	b.n	8001298 <HAL_RCC_OscConfig+0x11c>
 8001396:	681a      	ldr	r2, [r3, #0]
 8001398:	461f      	mov	r7, r3
 800139a:	f442 7280 	orr.w	r2, r2, #256	; 0x100
 800139e:	601a      	str	r2, [r3, #0]
 80013a0:	f7ff fb8e 	bl	8000ac0 <HAL_GetTick>
 80013a4:	4606      	mov	r6, r0
 80013a6:	683b      	ldr	r3, [r7, #0]
 80013a8:	05da      	lsls	r2, r3, #23
 80013aa:	f53f af61 	bmi.w	8001270 <HAL_RCC_OscConfig+0xf4>
 80013ae:	f7ff fb87 	bl	8000ac0 <HAL_GetTick>
 80013b2:	1b80      	subs	r0, r0, r6
 80013b4:	2864      	cmp	r0, #100	; 0x64
 80013b6:	d9f6      	bls.n	80013a6 <HAL_RCC_OscConfig+0x22a>
 80013b8:	2003      	movs	r0, #3
 80013ba:	b002      	add	sp, #8
 80013bc:	e8bd 81f0 	ldmia.w	sp!, {r4, r5, r6, r7, r8, pc}
 80013c0:	4b20      	ldr	r3, [pc, #128]	; (8001444 <HAL_RCC_OscConfig+0x2c8>)
 80013c2:	681a      	ldr	r2, [r3, #0]
 80013c4:	461e      	mov	r6, r3
 80013c6:	f422 3280 	bic.w	r2, r2, #65536	; 0x10000
 80013ca:	601a      	str	r2, [r3, #0]
 80013cc:	681a      	ldr	r2, [r3, #0]
 80013ce:	f422 2280 	bic.w	r2, r2, #262144	; 0x40000
 80013d2:	601a      	str	r2, [r3, #0]
 80013d4:	f7ff fb74 	bl	8000ac0 <HAL_GetTick>
 80013d8:	4605      	mov	r5, r0
 80013da:	e004      	b.n	80013e6 <HAL_RCC_OscConfig+0x26a>
 80013dc:	f7ff fb70 	bl	8000ac0 <HAL_GetTick>
 80013e0:	1b40      	subs	r0, r0, r5
 80013e2:	2864      	cmp	r0, #100	; 0x64
 80013e4:	d8e8      	bhi.n	80013b8 <HAL_RCC_OscConfig+0x23c>
 80013e6:	6833      	ldr	r3, [r6, #0]
 80013e8:	039b      	lsls	r3, r3, #14
 80013ea:	d4f7      	bmi.n	80013dc <HAL_RCC_OscConfig+0x260>
 80013ec:	e705      	b.n	80011fa <HAL_RCC_OscConfig+0x7e>
 80013ee:	4b15      	ldr	r3, [pc, #84]	; (8001444 <HAL_RCC_OscConfig+0x2c8>)
 80013f0:	f241 3888 	movw	r8, #5000	; 0x1388
 80013f4:	6f1a      	ldr	r2, [r3, #112]	; 0x70
 80013f6:	461f      	mov	r7, r3
 80013f8:	f022 0201 	bic.w	r2, r2, #1
 80013fc:	671a      	str	r2, [r3, #112]	; 0x70
 80013fe:	6f1a      	ldr	r2, [r3, #112]	; 0x70
 8001400:	f022 0204 	bic.w	r2, r2, #4
 8001404:	671a      	str	r2, [r3, #112]	; 0x70
 8001406:	f7ff fb5b 	bl	8000ac0 <HAL_GetTick>
 800140a:	4606      	mov	r6, r0
 800140c:	e004      	b.n	8001418 <HAL_RCC_OscConfig+0x29c>
 800140e:	f7ff fb57 	bl	8000ac0 <HAL_GetTick>
 8001412:	1b80      	subs	r0, r0, r6
 8001414:	4540      	cmp	r0, r8
 8001416:	d8cf      	bhi.n	80013b8 <HAL_RCC_OscConfig+0x23c>
 8001418:	6f3b      	ldr	r3, [r7, #112]	; 0x70
 800141a:	0798      	lsls	r0, r3, #30
 800141c:	d4f7      	bmi.n	800140e <HAL_RCC_OscConfig+0x292>
 800141e:	2d00      	cmp	r5, #0
 8001420:	f43f af52 	beq.w	80012c8 <HAL_RCC_OscConfig+0x14c>
 8001424:	4a07      	ldr	r2, [pc, #28]	; (8001444 <HAL_RCC_OscConfig+0x2c8>)
 8001426:	6c13      	ldr	r3, [r2, #64]	; 0x40
 8001428:	f023 5380 	bic.w	r3, r3, #268435456	; 0x10000000
 800142c:	6413      	str	r3, [r2, #64]	; 0x40
 800142e:	e74b      	b.n	80012c8 <HAL_RCC_OscConfig+0x14c>
 8001430:	4b04      	ldr	r3, [pc, #16]	; (8001444 <HAL_RCC_OscConfig+0x2c8>)
 8001432:	681a      	ldr	r2, [r3, #0]
 8001434:	461e      	mov	r6, r3
 8001436:	f022 0201 	bic.w	r2, r2, #1
 800143a:	601a      	str	r2, [r3, #0]
 800143c:	f7ff fb40 	bl	8000ac0 <HAL_GetTick>
 8001440:	4605      	mov	r5, r0
 8001442:	e008      	b.n	8001456 <HAL_RCC_OscConfig+0x2da>
 8001444:	40023800 	.word	0x40023800
 8001448:	40007000 	.word	0x40007000
 800144c:	f7ff fb38 	bl	8000ac0 <HAL_GetTick>
 8001450:	1b40      	subs	r0, r0, r5
 8001452:	2802      	cmp	r0, #2
 8001454:	d8b0      	bhi.n	80013b8 <HAL_RCC_OscConfig+0x23c>
 8001456:	6833      	ldr	r3, [r6, #0]
 8001458:	0799      	lsls	r1, r3, #30
 800145a:	d4f7      	bmi.n	800144c <HAL_RCC_OscConfig+0x2d0>
 800145c:	6823      	ldr	r3, [r4, #0]
 800145e:	e6f9      	b.n	8001254 <HAL_RCC_OscConfig+0xd8>
 8001460:	4a42      	ldr	r2, [pc, #264]	; (800156c <HAL_RCC_OscConfig+0x3f0>)
 8001462:	6f13      	ldr	r3, [r2, #112]	; 0x70
 8001464:	f043 0301 	orr.w	r3, r3, #1
 8001468:	6713      	str	r3, [r2, #112]	; 0x70
 800146a:	f7ff fb29 	bl	8000ac0 <HAL_GetTick>
 800146e:	4f3f      	ldr	r7, [pc, #252]	; (800156c <HAL_RCC_OscConfig+0x3f0>)
 8001470:	f241 3888 	movw	r8, #5000	; 0x1388
 8001474:	4606      	mov	r6, r0
 8001476:	e004      	b.n	8001482 <HAL_RCC_OscConfig+0x306>
 8001478:	f7ff fb22 	bl	8000ac0 <HAL_GetTick>
 800147c:	1b80      	subs	r0, r0, r6
 800147e:	4540      	cmp	r0, r8
 8001480:	d89a      	bhi.n	80013b8 <HAL_RCC_OscConfig+0x23c>
 8001482:	6f3b      	ldr	r3, [r7, #112]	; 0x70
 8001484:	079b      	lsls	r3, r3, #30
 8001486:	d5f7      	bpl.n	8001478 <HAL_RCC_OscConfig+0x2fc>
 8001488:	2d00      	cmp	r5, #0
 800148a:	f43f af1d 	beq.w	80012c8 <HAL_RCC_OscConfig+0x14c>
 800148e:	e7c9      	b.n	8001424 <HAL_RCC_OscConfig+0x2a8>
 8001490:	2801      	cmp	r0, #1
 8001492:	685a      	ldr	r2, [r3, #4]
 8001494:	f43f af36 	beq.w	8001304 <HAL_RCC_OscConfig+0x188>
 8001498:	f402 0380 	and.w	r3, r2, #4194304	; 0x400000
 800149c:	69e1      	ldr	r1, [r4, #28]
 800149e:	428b      	cmp	r3, r1
 80014a0:	f47f af3d 	bne.w	800131e <HAL_RCC_OscConfig+0x1a2>
 80014a4:	f002 033f 	and.w	r3, r2, #63	; 0x3f
 80014a8:	6a21      	ldr	r1, [r4, #32]
 80014aa:	428b      	cmp	r3, r1
 80014ac:	f47f af37 	bne.w	800131e <HAL_RCC_OscConfig+0x1a2>
 80014b0:	f647 73c0 	movw	r3, #32704	; 0x7fc0
 80014b4:	6a61      	ldr	r1, [r4, #36]	; 0x24
 80014b6:	4013      	ands	r3, r2
 80014b8:	ebb3 1f81 	cmp.w	r3, r1, lsl #6
 80014bc:	f47f af2f 	bne.w	800131e <HAL_RCC_OscConfig+0x1a2>
 80014c0:	6aa3      	ldr	r3, [r4, #40]	; 0x28
 80014c2:	f402 3140 	and.w	r1, r2, #196608	; 0x30000
 80014c6:	085b      	lsrs	r3, r3, #1
 80014c8:	3b01      	subs	r3, #1
 80014ca:	ebb1 4f03 	cmp.w	r1, r3, lsl #16
 80014ce:	f47f af26 	bne.w	800131e <HAL_RCC_OscConfig+0x1a2>
 80014d2:	6ae3      	ldr	r3, [r4, #44]	; 0x2c
 80014d4:	f002 6270 	and.w	r2, r2, #251658240	; 0xf000000
 80014d8:	ebb2 6f03 	cmp.w	r2, r3, lsl #24
 80014dc:	bf14      	ite	ne
 80014de:	2001      	movne	r0, #1
 80014e0:	2000      	moveq	r0, #0
 80014e2:	e70f      	b.n	8001304 <HAL_RCC_OscConfig+0x188>
 80014e4:	f442 2280 	orr.w	r2, r2, #262144	; 0x40000
 80014e8:	601a      	str	r2, [r3, #0]
 80014ea:	681a      	ldr	r2, [r3, #0]
 80014ec:	f442 3280 	orr.w	r2, r2, #65536	; 0x10000
 80014f0:	601a      	str	r2, [r3, #0]
 80014f2:	e674      	b.n	80011de <HAL_RCC_OscConfig+0x62>
 80014f4:	f042 0204 	orr.w	r2, r2, #4
 80014f8:	671a      	str	r2, [r3, #112]	; 0x70
 80014fa:	6f1a      	ldr	r2, [r3, #112]	; 0x70
 80014fc:	f042 0201 	orr.w	r2, r2, #1
 8001500:	671a      	str	r2, [r3, #112]	; 0x70
 8001502:	e7b2      	b.n	800146a <HAL_RCC_OscConfig+0x2ee>
 8001504:	2001      	movs	r0, #1
 8001506:	4770      	bx	lr
 8001508:	f7ff fada 	bl	8000ac0 <HAL_GetTick>
 800150c:	4606      	mov	r6, r0
 800150e:	e005      	b.n	800151c <HAL_RCC_OscConfig+0x3a0>
 8001510:	f7ff fad6 	bl	8000ac0 <HAL_GetTick>
 8001514:	1b80      	subs	r0, r0, r6
 8001516:	2802      	cmp	r0, #2
 8001518:	f63f af4e 	bhi.w	80013b8 <HAL_RCC_OscConfig+0x23c>
 800151c:	682b      	ldr	r3, [r5, #0]
 800151e:	0199      	lsls	r1, r3, #6
 8001520:	d4f6      	bmi.n	8001510 <HAL_RCC_OscConfig+0x394>
 8001522:	6aa2      	ldr	r2, [r4, #40]	; 0x28
 8001524:	69e3      	ldr	r3, [r4, #28]
 8001526:	0852      	lsrs	r2, r2, #1
 8001528:	4e10      	ldr	r6, [pc, #64]	; (800156c <HAL_RCC_OscConfig+0x3f0>)
 800152a:	e9d4 1008 	ldrd	r1, r0, [r4, #32]
 800152e:	3a01      	subs	r2, #1
 8001530:	430b      	orrs	r3, r1
 8001532:	6ae1      	ldr	r1, [r4, #44]	; 0x2c
 8001534:	ea43 4302 	orr.w	r3, r3, r2, lsl #16
 8001538:	ea43 1380 	orr.w	r3, r3, r0, lsl #6
 800153c:	ea43 6301 	orr.w	r3, r3, r1, lsl #24
 8001540:	f043 5300 	orr.w	r3, r3, #536870912	; 0x20000000
 8001544:	606b      	str	r3, [r5, #4]
 8001546:	682b      	ldr	r3, [r5, #0]
 8001548:	f043 7380 	orr.w	r3, r3, #16777216	; 0x1000000
 800154c:	602b      	str	r3, [r5, #0]
 800154e:	f7ff fab7 	bl	8000ac0 <HAL_GetTick>
 8001552:	4604      	mov	r4, r0
 8001554:	e005      	b.n	8001562 <HAL_RCC_OscConfig+0x3e6>
 8001556:	f7ff fab3 	bl	8000ac0 <HAL_GetTick>
 800155a:	1b00      	subs	r0, r0, r4
 800155c:	2802      	cmp	r0, #2
 800155e:	f63f af2b 	bhi.w	80013b8 <HAL_RCC_OscConfig+0x23c>
 8001562:	6833      	ldr	r3, [r6, #0]
 8001564:	019a      	lsls	r2, r3, #6
 8001566:	d5f6      	bpl.n	8001556 <HAL_RCC_OscConfig+0x3da>
 8001568:	e6cb      	b.n	8001302 <HAL_RCC_OscConfig+0x186>
 800156a:	bf00      	nop
 800156c:	40023800 	.word	0x40023800

08001570 <HAL_RCC_GetSysClockFreq>:
 8001570:	4916      	ldr	r1, [pc, #88]	; (80015cc <HAL_RCC_GetSysClockFreq+0x5c>)
 8001572:	b508      	push	{r3, lr}
 8001574:	688b      	ldr	r3, [r1, #8]
 8001576:	f003 030c 	and.w	r3, r3, #12
 800157a:	2b04      	cmp	r3, #4
 800157c:	d01b      	beq.n	80015b6 <HAL_RCC_GetSysClockFreq+0x46>
 800157e:	2b08      	cmp	r3, #8
 8001580:	d117      	bne.n	80015b2 <HAL_RCC_GetSysClockFreq+0x42>
 8001582:	684a      	ldr	r2, [r1, #4]
 8001584:	684b      	ldr	r3, [r1, #4]
 8001586:	f002 023f 	and.w	r2, r2, #63	; 0x3f
 800158a:	6849      	ldr	r1, [r1, #4]
 800158c:	f413 0380 	ands.w	r3, r3, #4194304	; 0x400000
 8001590:	d113      	bne.n	80015ba <HAL_RCC_GetSysClockFreq+0x4a>
 8001592:	480f      	ldr	r0, [pc, #60]	; (80015d0 <HAL_RCC_GetSysClockFreq+0x60>)
 8001594:	f3c1 1188 	ubfx	r1, r1, #6, #9
 8001598:	fba1 0100 	umull	r0, r1, r1, r0
 800159c:	f7fe fe34 	bl	8000208 <__aeabi_uldivmod>
 80015a0:	4b0a      	ldr	r3, [pc, #40]	; (80015cc <HAL_RCC_GetSysClockFreq+0x5c>)
 80015a2:	685b      	ldr	r3, [r3, #4]
 80015a4:	f3c3 4301 	ubfx	r3, r3, #16, #2
 80015a8:	3301      	adds	r3, #1
 80015aa:	005b      	lsls	r3, r3, #1
 80015ac:	fbb0 f0f3 	udiv	r0, r0, r3
 80015b0:	bd08      	pop	{r3, pc}
 80015b2:	4807      	ldr	r0, [pc, #28]	; (80015d0 <HAL_RCC_GetSysClockFreq+0x60>)
 80015b4:	bd08      	pop	{r3, pc}
 80015b6:	4807      	ldr	r0, [pc, #28]	; (80015d4 <HAL_RCC_GetSysClockFreq+0x64>)
 80015b8:	bd08      	pop	{r3, pc}
 80015ba:	4806      	ldr	r0, [pc, #24]	; (80015d4 <HAL_RCC_GetSysClockFreq+0x64>)
 80015bc:	f3c1 1188 	ubfx	r1, r1, #6, #9
 80015c0:	2300      	movs	r3, #0
 80015c2:	fba1 0100 	umull	r0, r1, r1, r0
 80015c6:	f7fe fe1f 	bl	8000208 <__aeabi_uldivmod>
 80015ca:	e7e9      	b.n	80015a0 <HAL_RCC_GetSysClockFreq+0x30>
 80015cc:	40023800 	.word	0x40023800
 80015d0:	00f42400 	.word	0x00f42400
 80015d4:	017d7840 	.word	0x017d7840

080015d8 <HAL_RCC_ClockConfig>:
 80015d8:	2800      	cmp	r0, #0
 80015da:	f000 808d 	beq.w	80016f8 <HAL_RCC_ClockConfig+0x120>
 80015de:	4a4a      	ldr	r2, [pc, #296]	; (8001708 <HAL_RCC_ClockConfig+0x130>)
 80015e0:	6813      	ldr	r3, [r2, #0]
 80015e2:	f003 030f 	and.w	r3, r3, #15
 80015e6:	428b      	cmp	r3, r1
 80015e8:	e92d 41f0 	stmdb	sp!, {r4, r5, r6, r7, r8, lr}
 80015ec:	4604      	mov	r4, r0
 80015ee:	460d      	mov	r5, r1
 80015f0:	d20c      	bcs.n	800160c <HAL_RCC_ClockConfig+0x34>
 80015f2:	6813      	ldr	r3, [r2, #0]
 80015f4:	f023 030f 	bic.w	r3, r3, #15
 80015f8:	430b      	orrs	r3, r1
 80015fa:	6013      	str	r3, [r2, #0]
 80015fc:	6813      	ldr	r3, [r2, #0]
 80015fe:	f003 030f 	and.w	r3, r3, #15
 8001602:	428b      	cmp	r3, r1
 8001604:	d002      	beq.n	800160c <HAL_RCC_ClockConfig+0x34>
 8001606:	2001      	movs	r0, #1
 8001608:	e8bd 81f0 	ldmia.w	sp!, {r4, r5, r6, r7, r8, pc}
 800160c:	6823      	ldr	r3, [r4, #0]
 800160e:	0798      	lsls	r0, r3, #30
 8001610:	d514      	bpl.n	800163c <HAL_RCC_ClockConfig+0x64>
 8001612:	0759      	lsls	r1, r3, #29
 8001614:	d504      	bpl.n	8001620 <HAL_RCC_ClockConfig+0x48>
 8001616:	493d      	ldr	r1, [pc, #244]	; (800170c <HAL_RCC_ClockConfig+0x134>)
 8001618:	688a      	ldr	r2, [r1, #8]
 800161a:	f442 52e0 	orr.w	r2, r2, #7168	; 0x1c00
 800161e:	608a      	str	r2, [r1, #8]
 8001620:	071a      	lsls	r2, r3, #28
 8001622:	d504      	bpl.n	800162e <HAL_RCC_ClockConfig+0x56>
 8001624:	4939      	ldr	r1, [pc, #228]	; (800170c <HAL_RCC_ClockConfig+0x134>)
 8001626:	688a      	ldr	r2, [r1, #8]
 8001628:	f442 4260 	orr.w	r2, r2, #57344	; 0xe000
 800162c:	608a      	str	r2, [r1, #8]
 800162e:	4937      	ldr	r1, [pc, #220]	; (800170c <HAL_RCC_ClockConfig+0x134>)
 8001630:	68a0      	ldr	r0, [r4, #8]
 8001632:	688a      	ldr	r2, [r1, #8]
 8001634:	f022 02f0 	bic.w	r2, r2, #240	; 0xf0
 8001638:	4302      	orrs	r2, r0
 800163a:	608a      	str	r2, [r1, #8]
 800163c:	07df      	lsls	r7, r3, #31
 800163e:	d521      	bpl.n	8001684 <HAL_RCC_ClockConfig+0xac>
 8001640:	6862      	ldr	r2, [r4, #4]
 8001642:	4b32      	ldr	r3, [pc, #200]	; (800170c <HAL_RCC_ClockConfig+0x134>)
 8001644:	2a01      	cmp	r2, #1
 8001646:	681b      	ldr	r3, [r3, #0]
 8001648:	d058      	beq.n	80016fc <HAL_RCC_ClockConfig+0x124>
 800164a:	2a02      	cmp	r2, #2
 800164c:	d051      	beq.n	80016f2 <HAL_RCC_ClockConfig+0x11a>
 800164e:	0799      	lsls	r1, r3, #30
 8001650:	d5d9      	bpl.n	8001606 <HAL_RCC_ClockConfig+0x2e>
 8001652:	492e      	ldr	r1, [pc, #184]	; (800170c <HAL_RCC_ClockConfig+0x134>)
 8001654:	f241 3888 	movw	r8, #5000	; 0x1388
 8001658:	688b      	ldr	r3, [r1, #8]
 800165a:	460f      	mov	r7, r1
 800165c:	f023 0303 	bic.w	r3, r3, #3
 8001660:	4313      	orrs	r3, r2
 8001662:	608b      	str	r3, [r1, #8]
 8001664:	f7ff fa2c 	bl	8000ac0 <HAL_GetTick>
 8001668:	4606      	mov	r6, r0
 800166a:	e004      	b.n	8001676 <HAL_RCC_ClockConfig+0x9e>
 800166c:	f7ff fa28 	bl	8000ac0 <HAL_GetTick>
 8001670:	1b80      	subs	r0, r0, r6
 8001672:	4540      	cmp	r0, r8
 8001674:	d845      	bhi.n	8001702 <HAL_RCC_ClockConfig+0x12a>
 8001676:	68bb      	ldr	r3, [r7, #8]
 8001678:	6862      	ldr	r2, [r4, #4]
 800167a:	f003 030c 	and.w	r3, r3, #12
 800167e:	ebb3 0f82 	cmp.w	r3, r2, lsl #2
 8001682:	d1f3      	bne.n	800166c <HAL_RCC_ClockConfig+0x94>
 8001684:	4a20      	ldr	r2, [pc, #128]	; (8001708 <HAL_RCC_ClockConfig+0x130>)
 8001686:	6813      	ldr	r3, [r2, #0]
 8001688:	f003 030f 	and.w	r3, r3, #15
 800168c:	42ab      	cmp	r3, r5
 800168e:	d909      	bls.n	80016a4 <HAL_RCC_ClockConfig+0xcc>
 8001690:	6813      	ldr	r3, [r2, #0]
 8001692:	f023 030f 	bic.w	r3, r3, #15
 8001696:	432b      	orrs	r3, r5
 8001698:	6013      	str	r3, [r2, #0]
 800169a:	6813      	ldr	r3, [r2, #0]
 800169c:	f003 030f 	and.w	r3, r3, #15
 80016a0:	42ab      	cmp	r3, r5
 80016a2:	d1b0      	bne.n	8001606 <HAL_RCC_ClockConfig+0x2e>
 80016a4:	6823      	ldr	r3, [r4, #0]
 80016a6:	075a      	lsls	r2, r3, #29
 80016a8:	d506      	bpl.n	80016b8 <HAL_RCC_ClockConfig+0xe0>
 80016aa:	4918      	ldr	r1, [pc, #96]	; (800170c <HAL_RCC_ClockConfig+0x134>)
 80016ac:	68e0      	ldr	r0, [r4, #12]
 80016ae:	688a      	ldr	r2, [r1, #8]
 80016b0:	f422 52e0 	bic.w	r2, r2, #7168	; 0x1c00
 80016b4:	4302      	orrs	r2, r0
 80016b6:	608a      	str	r2, [r1, #8]
 80016b8:	071b      	lsls	r3, r3, #28
 80016ba:	d507      	bpl.n	80016cc <HAL_RCC_ClockConfig+0xf4>
 80016bc:	4a13      	ldr	r2, [pc, #76]	; (800170c <HAL_RCC_ClockConfig+0x134>)
 80016be:	6921      	ldr	r1, [r4, #16]
 80016c0:	6893      	ldr	r3, [r2, #8]
 80016c2:	f423 4360 	bic.w	r3, r3, #57344	; 0xe000
 80016c6:	ea43 03c1 	orr.w	r3, r3, r1, lsl #3
 80016ca:	6093      	str	r3, [r2, #8]
 80016cc:	f7ff ff50 	bl	8001570 <HAL_RCC_GetSysClockFreq>
 80016d0:	4a0e      	ldr	r2, [pc, #56]	; (800170c <HAL_RCC_ClockConfig+0x134>)
 80016d2:	4c0f      	ldr	r4, [pc, #60]	; (8001710 <HAL_RCC_ClockConfig+0x138>)
 80016d4:	4603      	mov	r3, r0
 80016d6:	6892      	ldr	r2, [r2, #8]
 80016d8:	480e      	ldr	r0, [pc, #56]	; (8001714 <HAL_RCC_ClockConfig+0x13c>)
 80016da:	f3c2 1203 	ubfx	r2, r2, #4, #4
 80016de:	490e      	ldr	r1, [pc, #56]	; (8001718 <HAL_RCC_ClockConfig+0x140>)
 80016e0:	6800      	ldr	r0, [r0, #0]
 80016e2:	5ca2      	ldrb	r2, [r4, r2]
 80016e4:	40d3      	lsrs	r3, r2
 80016e6:	600b      	str	r3, [r1, #0]
 80016e8:	f7ff f9ae 	bl	8000a48 <HAL_InitTick>
 80016ec:	2000      	movs	r0, #0
 80016ee:	e8bd 81f0 	ldmia.w	sp!, {r4, r5, r6, r7, r8, pc}
 80016f2:	0198      	lsls	r0, r3, #6
 80016f4:	d4ad      	bmi.n	8001652 <HAL_RCC_ClockConfig+0x7a>
 80016f6:	e786      	b.n	8001606 <HAL_RCC_ClockConfig+0x2e>
 80016f8:	2001      	movs	r0, #1
 80016fa:	4770      	bx	lr
 80016fc:	039e      	lsls	r6, r3, #14
 80016fe:	d4a8      	bmi.n	8001652 <HAL_RCC_ClockConfig+0x7a>
 8001700:	e781      	b.n	8001606 <HAL_RCC_ClockConfig+0x2e>
 8001702:	2003      	movs	r0, #3
 8001704:	e780      	b.n	8001608 <HAL_RCC_ClockConfig+0x30>
 8001706:	bf00      	nop
 8001708:	40023c00 	.word	0x40023c00
 800170c:	40023800 	.word	0x40023800
 8001710:	08001cf4 	.word	0x08001cf4
 8001714:	20000008 	.word	0x20000008
 8001718:	20000000 	.word	0x20000000

0800171c <HAL_RCCEx_PeriphCLKConfig>:
 800171c:	6803      	ldr	r3, [r0, #0]
 800171e:	e92d 43f0 	stmdb	sp!, {r4, r5, r6, r7, r8, r9, lr}
 8001722:	f013 0601 	ands.w	r6, r3, #1
 8001726:	b083      	sub	sp, #12
 8001728:	4604      	mov	r4, r0
 800172a:	d00b      	beq.n	8001744 <HAL_RCCEx_PeriphCLKConfig+0x28>
 800172c:	4abb      	ldr	r2, [pc, #748]	; (8001a1c <HAL_RCCEx_PeriphCLKConfig+0x300>)
 800172e:	6891      	ldr	r1, [r2, #8]
 8001730:	f421 0100 	bic.w	r1, r1, #8388608	; 0x800000
 8001734:	6091      	str	r1, [r2, #8]
 8001736:	6b40      	ldr	r0, [r0, #52]	; 0x34
 8001738:	6891      	ldr	r1, [r2, #8]
 800173a:	fab0 f680 	clz	r6, r0
 800173e:	4301      	orrs	r1, r0
 8001740:	0976      	lsrs	r6, r6, #5
 8001742:	6091      	str	r1, [r2, #8]
 8001744:	f413 2500 	ands.w	r5, r3, #524288	; 0x80000
 8001748:	d010      	beq.n	800176c <HAL_RCCEx_PeriphCLKConfig+0x50>
 800174a:	49b4      	ldr	r1, [pc, #720]	; (8001a1c <HAL_RCCEx_PeriphCLKConfig+0x300>)
 800174c:	6be5      	ldr	r5, [r4, #60]	; 0x3c
 800174e:	f8d1 208c 	ldr.w	r2, [r1, #140]	; 0x8c
 8001752:	f5b5 1f80 	cmp.w	r5, #1048576	; 0x100000
 8001756:	f422 1240 	bic.w	r2, r2, #3145728	; 0x300000
 800175a:	ea42 0205 	orr.w	r2, r2, r5
 800175e:	f8c1 208c 	str.w	r2, [r1, #140]	; 0x8c
 8001762:	f000 8219 	beq.w	8001b98 <HAL_RCCEx_PeriphCLKConfig+0x47c>
 8001766:	fab5 f585 	clz	r5, r5
 800176a:	096d      	lsrs	r5, r5, #5
 800176c:	02df      	lsls	r7, r3, #11
 800176e:	d510      	bpl.n	8001792 <HAL_RCCEx_PeriphCLKConfig+0x76>
 8001770:	48aa      	ldr	r0, [pc, #680]	; (8001a1c <HAL_RCCEx_PeriphCLKConfig+0x300>)
 8001772:	6c21      	ldr	r1, [r4, #64]	; 0x40
 8001774:	f8d0 208c 	ldr.w	r2, [r0, #140]	; 0x8c
 8001778:	f5b1 0f80 	cmp.w	r1, #4194304	; 0x400000
 800177c:	f422 0240 	bic.w	r2, r2, #12582912	; 0xc00000
 8001780:	ea42 0201 	orr.w	r2, r2, r1
 8001784:	f8c0 208c 	str.w	r2, [r0, #140]	; 0x8c
 8001788:	f000 8209 	beq.w	8001b9e <HAL_RCCEx_PeriphCLKConfig+0x482>
 800178c:	2900      	cmp	r1, #0
 800178e:	bf08      	it	eq
 8001790:	2501      	moveq	r5, #1
 8001792:	f013 7f80 	tst.w	r3, #16777216	; 0x1000000
 8001796:	bf18      	it	ne
 8001798:	2601      	movne	r6, #1
 800179a:	0698      	lsls	r0, r3, #26
 800179c:	f100 81b6 	bmi.w	8001b0c <HAL_RCCEx_PeriphCLKConfig+0x3f0>
 80017a0:	06df      	lsls	r7, r3, #27
 80017a2:	d50c      	bpl.n	80017be <HAL_RCCEx_PeriphCLKConfig+0xa2>
 80017a4:	4a9d      	ldr	r2, [pc, #628]	; (8001a1c <HAL_RCCEx_PeriphCLKConfig+0x300>)
 80017a6:	f8d2 108c 	ldr.w	r1, [r2, #140]	; 0x8c
 80017aa:	f021 7180 	bic.w	r1, r1, #16777216	; 0x1000000
 80017ae:	f8c2 108c 	str.w	r1, [r2, #140]	; 0x8c
 80017b2:	f8d2 108c 	ldr.w	r1, [r2, #140]	; 0x8c
 80017b6:	6ba0      	ldr	r0, [r4, #56]	; 0x38
 80017b8:	4301      	orrs	r1, r0
 80017ba:	f8c2 108c 	str.w	r1, [r2, #140]	; 0x8c
 80017be:	0458      	lsls	r0, r3, #17
 80017c0:	d508      	bpl.n	80017d4 <HAL_RCCEx_PeriphCLKConfig+0xb8>
 80017c2:	4996      	ldr	r1, [pc, #600]	; (8001a1c <HAL_RCCEx_PeriphCLKConfig+0x300>)
 80017c4:	6e60      	ldr	r0, [r4, #100]	; 0x64
 80017c6:	f8d1 2090 	ldr.w	r2, [r1, #144]	; 0x90
 80017ca:	f422 3240 	bic.w	r2, r2, #196608	; 0x30000
 80017ce:	4302      	orrs	r2, r0
 80017d0:	f8c1 2090 	str.w	r2, [r1, #144]	; 0x90
 80017d4:	0419      	lsls	r1, r3, #16
 80017d6:	d508      	bpl.n	80017ea <HAL_RCCEx_PeriphCLKConfig+0xce>
 80017d8:	4990      	ldr	r1, [pc, #576]	; (8001a1c <HAL_RCCEx_PeriphCLKConfig+0x300>)
 80017da:	6ea0      	ldr	r0, [r4, #104]	; 0x68
 80017dc:	f8d1 2090 	ldr.w	r2, [r1, #144]	; 0x90
 80017e0:	f422 2240 	bic.w	r2, r2, #786432	; 0xc0000
 80017e4:	4302      	orrs	r2, r0
 80017e6:	f8c1 2090 	str.w	r2, [r1, #144]	; 0x90
 80017ea:	03da      	lsls	r2, r3, #15
 80017ec:	d508      	bpl.n	8001800 <HAL_RCCEx_PeriphCLKConfig+0xe4>
 80017ee:	498b      	ldr	r1, [pc, #556]	; (8001a1c <HAL_RCCEx_PeriphCLKConfig+0x300>)
 80017f0:	6ee0      	ldr	r0, [r4, #108]	; 0x6c
 80017f2:	f8d1 2090 	ldr.w	r2, [r1, #144]	; 0x90
 80017f6:	f422 1240 	bic.w	r2, r2, #3145728	; 0x300000
 80017fa:	4302      	orrs	r2, r0
 80017fc:	f8c1 2090 	str.w	r2, [r1, #144]	; 0x90
 8001800:	039f      	lsls	r7, r3, #14
 8001802:	d508      	bpl.n	8001816 <HAL_RCCEx_PeriphCLKConfig+0xfa>
 8001804:	4985      	ldr	r1, [pc, #532]	; (8001a1c <HAL_RCCEx_PeriphCLKConfig+0x300>)
 8001806:	6f20      	ldr	r0, [r4, #112]	; 0x70
 8001808:	f8d1 2090 	ldr.w	r2, [r1, #144]	; 0x90
 800180c:	f422 0240 	bic.w	r2, r2, #12582912	; 0xc00000
 8001810:	4302      	orrs	r2, r0
 8001812:	f8c1 2090 	str.w	r2, [r1, #144]	; 0x90
 8001816:	0658      	lsls	r0, r3, #25
 8001818:	d508      	bpl.n	800182c <HAL_RCCEx_PeriphCLKConfig+0x110>
 800181a:	4980      	ldr	r1, [pc, #512]	; (8001a1c <HAL_RCCEx_PeriphCLKConfig+0x300>)
 800181c:	6c60      	ldr	r0, [r4, #68]	; 0x44
 800181e:	f8d1 2090 	ldr.w	r2, [r1, #144]	; 0x90
 8001822:	f022 0203 	bic.w	r2, r2, #3
 8001826:	4302      	orrs	r2, r0
 8001828:	f8c1 2090 	str.w	r2, [r1, #144]	; 0x90
 800182c:	0619      	lsls	r1, r3, #24
 800182e:	d508      	bpl.n	8001842 <HAL_RCCEx_PeriphCLKConfig+0x126>
 8001830:	497a      	ldr	r1, [pc, #488]	; (8001a1c <HAL_RCCEx_PeriphCLKConfig+0x300>)
 8001832:	6ca0      	ldr	r0, [r4, #72]	; 0x48
 8001834:	f8d1 2090 	ldr.w	r2, [r1, #144]	; 0x90
 8001838:	f022 020c 	bic.w	r2, r2, #12
 800183c:	4302      	orrs	r2, r0
 800183e:	f8c1 2090 	str.w	r2, [r1, #144]	; 0x90
 8001842:	05da      	lsls	r2, r3, #23
 8001844:	d508      	bpl.n	8001858 <HAL_RCCEx_PeriphCLKConfig+0x13c>
 8001846:	4975      	ldr	r1, [pc, #468]	; (8001a1c <HAL_RCCEx_PeriphCLKConfig+0x300>)
 8001848:	6ce0      	ldr	r0, [r4, #76]	; 0x4c
 800184a:	f8d1 2090 	ldr.w	r2, [r1, #144]	; 0x90
 800184e:	f022 0230 	bic.w	r2, r2, #48	; 0x30
 8001852:	4302      	orrs	r2, r0
 8001854:	f8c1 2090 	str.w	r2, [r1, #144]	; 0x90
 8001858:	059f      	lsls	r7, r3, #22
 800185a:	d508      	bpl.n	800186e <HAL_RCCEx_PeriphCLKConfig+0x152>
 800185c:	496f      	ldr	r1, [pc, #444]	; (8001a1c <HAL_RCCEx_PeriphCLKConfig+0x300>)
 800185e:	6d20      	ldr	r0, [r4, #80]	; 0x50
 8001860:	f8d1 2090 	ldr.w	r2, [r1, #144]	; 0x90
 8001864:	f022 02c0 	bic.w	r2, r2, #192	; 0xc0
 8001868:	4302      	orrs	r2, r0
 800186a:	f8c1 2090 	str.w	r2, [r1, #144]	; 0x90
 800186e:	0558      	lsls	r0, r3, #21
 8001870:	d508      	bpl.n	8001884 <HAL_RCCEx_PeriphCLKConfig+0x168>
 8001872:	496a      	ldr	r1, [pc, #424]	; (8001a1c <HAL_RCCEx_PeriphCLKConfig+0x300>)
 8001874:	6d60      	ldr	r0, [r4, #84]	; 0x54
 8001876:	f8d1 2090 	ldr.w	r2, [r1, #144]	; 0x90
 800187a:	f422 7240 	bic.w	r2, r2, #768	; 0x300
 800187e:	4302      	orrs	r2, r0
 8001880:	f8c1 2090 	str.w	r2, [r1, #144]	; 0x90
 8001884:	0519      	lsls	r1, r3, #20
 8001886:	d508      	bpl.n	800189a <HAL_RCCEx_PeriphCLKConfig+0x17e>
 8001888:	4964      	ldr	r1, [pc, #400]	; (8001a1c <HAL_RCCEx_PeriphCLKConfig+0x300>)
 800188a:	6da0      	ldr	r0, [r4, #88]	; 0x58
 800188c:	f8d1 2090 	ldr.w	r2, [r1, #144]	; 0x90
 8001890:	f422 6240 	bic.w	r2, r2, #3072	; 0xc00
 8001894:	4302      	orrs	r2, r0
 8001896:	f8c1 2090 	str.w	r2, [r1, #144]	; 0x90
 800189a:	04da      	lsls	r2, r3, #19
 800189c:	d508      	bpl.n	80018b0 <HAL_RCCEx_PeriphCLKConfig+0x194>
 800189e:	495f      	ldr	r1, [pc, #380]	; (8001a1c <HAL_RCCEx_PeriphCLKConfig+0x300>)
 80018a0:	6de0      	ldr	r0, [r4, #92]	; 0x5c
 80018a2:	f8d1 2090 	ldr.w	r2, [r1, #144]	; 0x90
 80018a6:	f422 5240 	bic.w	r2, r2, #12288	; 0x3000
 80018aa:	4302      	orrs	r2, r0
 80018ac:	f8c1 2090 	str.w	r2, [r1, #144]	; 0x90
 80018b0:	049f      	lsls	r7, r3, #18
 80018b2:	d508      	bpl.n	80018c6 <HAL_RCCEx_PeriphCLKConfig+0x1aa>
 80018b4:	4959      	ldr	r1, [pc, #356]	; (8001a1c <HAL_RCCEx_PeriphCLKConfig+0x300>)
 80018b6:	6e20      	ldr	r0, [r4, #96]	; 0x60
 80018b8:	f8d1 2090 	ldr.w	r2, [r1, #144]	; 0x90
 80018bc:	f422 4240 	bic.w	r2, r2, #49152	; 0xc000
 80018c0:	4302      	orrs	r2, r0
 80018c2:	f8c1 2090 	str.w	r2, [r1, #144]	; 0x90
 80018c6:	0258      	lsls	r0, r3, #9
 80018c8:	d508      	bpl.n	80018dc <HAL_RCCEx_PeriphCLKConfig+0x1c0>
 80018ca:	4954      	ldr	r1, [pc, #336]	; (8001a1c <HAL_RCCEx_PeriphCLKConfig+0x300>)
 80018cc:	6fa0      	ldr	r0, [r4, #120]	; 0x78
 80018ce:	f8d1 2090 	ldr.w	r2, [r1, #144]	; 0x90
 80018d2:	f022 6280 	bic.w	r2, r2, #67108864	; 0x4000000
 80018d6:	4302      	orrs	r2, r0
 80018d8:	f8c1 2090 	str.w	r2, [r1, #144]	; 0x90
 80018dc:	0299      	lsls	r1, r3, #10
 80018de:	d50c      	bpl.n	80018fa <HAL_RCCEx_PeriphCLKConfig+0x1de>
 80018e0:	494e      	ldr	r1, [pc, #312]	; (8001a1c <HAL_RCCEx_PeriphCLKConfig+0x300>)
 80018e2:	6fe0      	ldr	r0, [r4, #124]	; 0x7c
 80018e4:	f8d1 2090 	ldr.w	r2, [r1, #144]	; 0x90
 80018e8:	f1b0 6f00 	cmp.w	r0, #134217728	; 0x8000000
 80018ec:	f022 6200 	bic.w	r2, r2, #134217728	; 0x8000000
 80018f0:	bf08      	it	eq
 80018f2:	2501      	moveq	r5, #1
 80018f4:	4302      	orrs	r2, r0
 80018f6:	f8c1 2090 	str.w	r2, [r1, #144]	; 0x90
 80018fa:	f013 0f08 	tst.w	r3, #8
 80018fe:	bf18      	it	ne
 8001900:	2501      	movne	r5, #1
 8001902:	035a      	lsls	r2, r3, #13
 8001904:	d508      	bpl.n	8001918 <HAL_RCCEx_PeriphCLKConfig+0x1fc>
 8001906:	4945      	ldr	r1, [pc, #276]	; (8001a1c <HAL_RCCEx_PeriphCLKConfig+0x300>)
 8001908:	6f60      	ldr	r0, [r4, #116]	; 0x74
 800190a:	f8d1 2090 	ldr.w	r2, [r1, #144]	; 0x90
 800190e:	f022 7240 	bic.w	r2, r2, #50331648	; 0x3000000
 8001912:	4302      	orrs	r2, r0
 8001914:	f8c1 2090 	str.w	r2, [r1, #144]	; 0x90
 8001918:	021f      	lsls	r7, r3, #8
 800191a:	d46a      	bmi.n	80019f2 <HAL_RCCEx_PeriphCLKConfig+0x2d6>
 800191c:	2e01      	cmp	r6, #1
 800191e:	d001      	beq.n	8001924 <HAL_RCCEx_PeriphCLKConfig+0x208>
 8001920:	0198      	lsls	r0, r3, #6
 8001922:	d560      	bpl.n	80019e6 <HAL_RCCEx_PeriphCLKConfig+0x2ca>
 8001924:	4b3d      	ldr	r3, [pc, #244]	; (8001a1c <HAL_RCCEx_PeriphCLKConfig+0x300>)
 8001926:	681a      	ldr	r2, [r3, #0]
 8001928:	461f      	mov	r7, r3
 800192a:	f022 6280 	bic.w	r2, r2, #67108864	; 0x4000000
 800192e:	601a      	str	r2, [r3, #0]
 8001930:	f7ff f8c6 	bl	8000ac0 <HAL_GetTick>
 8001934:	4606      	mov	r6, r0
 8001936:	e005      	b.n	8001944 <HAL_RCCEx_PeriphCLKConfig+0x228>
 8001938:	f7ff f8c2 	bl	8000ac0 <HAL_GetTick>
 800193c:	1b83      	subs	r3, r0, r6
 800193e:	2b64      	cmp	r3, #100	; 0x64
 8001940:	f200 80e0 	bhi.w	8001b04 <HAL_RCCEx_PeriphCLKConfig+0x3e8>
 8001944:	683b      	ldr	r3, [r7, #0]
 8001946:	0119      	lsls	r1, r3, #4
 8001948:	d4f6      	bmi.n	8001938 <HAL_RCCEx_PeriphCLKConfig+0x21c>
 800194a:	6823      	ldr	r3, [r4, #0]
 800194c:	07da      	lsls	r2, r3, #31
 800194e:	d512      	bpl.n	8001976 <HAL_RCCEx_PeriphCLKConfig+0x25a>
 8001950:	6b62      	ldr	r2, [r4, #52]	; 0x34
 8001952:	b982      	cbnz	r2, 8001976 <HAL_RCCEx_PeriphCLKConfig+0x25a>
 8001954:	f8d7 2084 	ldr.w	r2, [r7, #132]	; 0x84
 8001958:	f8d7 6084 	ldr.w	r6, [r7, #132]	; 0x84
 800195c:	f402 3240 	and.w	r2, r2, #196608	; 0x30000
 8001960:	6860      	ldr	r0, [r4, #4]
 8001962:	f006 6670 	and.w	r6, r6, #251658240	; 0xf000000
 8001966:	68a1      	ldr	r1, [r4, #8]
 8001968:	4332      	orrs	r2, r6
 800196a:	ea42 1280 	orr.w	r2, r2, r0, lsl #6
 800196e:	ea42 7201 	orr.w	r2, r2, r1, lsl #28
 8001972:	f8c7 2084 	str.w	r2, [r7, #132]	; 0x84
 8001976:	031e      	lsls	r6, r3, #12
 8001978:	d504      	bpl.n	8001984 <HAL_RCCEx_PeriphCLKConfig+0x268>
 800197a:	6be2      	ldr	r2, [r4, #60]	; 0x3c
 800197c:	f5b2 1f80 	cmp.w	r2, #1048576	; 0x100000
 8001980:	f000 811e 	beq.w	8001bc0 <HAL_RCCEx_PeriphCLKConfig+0x4a4>
 8001984:	02d8      	lsls	r0, r3, #11
 8001986:	d504      	bpl.n	8001992 <HAL_RCCEx_PeriphCLKConfig+0x276>
 8001988:	6c22      	ldr	r2, [r4, #64]	; 0x40
 800198a:	f5b2 0f80 	cmp.w	r2, #4194304	; 0x400000
 800198e:	f000 8117 	beq.w	8001bc0 <HAL_RCCEx_PeriphCLKConfig+0x4a4>
 8001992:	01d9      	lsls	r1, r3, #7
 8001994:	d511      	bpl.n	80019ba <HAL_RCCEx_PeriphCLKConfig+0x29e>
 8001996:	4e21      	ldr	r6, [pc, #132]	; (8001a1c <HAL_RCCEx_PeriphCLKConfig+0x300>)
 8001998:	6860      	ldr	r0, [r4, #4]
 800199a:	f8d6 2084 	ldr.w	r2, [r6, #132]	; 0x84
 800199e:	f8d6 7084 	ldr.w	r7, [r6, #132]	; 0x84
 80019a2:	f002 6270 	and.w	r2, r2, #251658240	; 0xf000000
 80019a6:	6921      	ldr	r1, [r4, #16]
 80019a8:	f007 47e0 	and.w	r7, r7, #1879048192	; 0x70000000
 80019ac:	433a      	orrs	r2, r7
 80019ae:	ea42 1280 	orr.w	r2, r2, r0, lsl #6
 80019b2:	ea42 4201 	orr.w	r2, r2, r1, lsl #16
 80019b6:	f8c6 2084 	str.w	r2, [r6, #132]	; 0x84
 80019ba:	019a      	lsls	r2, r3, #6
 80019bc:	f100 80f1 	bmi.w	8001ba2 <HAL_RCCEx_PeriphCLKConfig+0x486>
 80019c0:	4b16      	ldr	r3, [pc, #88]	; (8001a1c <HAL_RCCEx_PeriphCLKConfig+0x300>)
 80019c2:	681a      	ldr	r2, [r3, #0]
 80019c4:	461f      	mov	r7, r3
 80019c6:	f042 6280 	orr.w	r2, r2, #67108864	; 0x4000000
 80019ca:	601a      	str	r2, [r3, #0]
 80019cc:	f7ff f878 	bl	8000ac0 <HAL_GetTick>
 80019d0:	4606      	mov	r6, r0
 80019d2:	e005      	b.n	80019e0 <HAL_RCCEx_PeriphCLKConfig+0x2c4>
 80019d4:	f7ff f874 	bl	8000ac0 <HAL_GetTick>
 80019d8:	1b80      	subs	r0, r0, r6
 80019da:	2864      	cmp	r0, #100	; 0x64
 80019dc:	f200 8092 	bhi.w	8001b04 <HAL_RCCEx_PeriphCLKConfig+0x3e8>
 80019e0:	683b      	ldr	r3, [r7, #0]
 80019e2:	011b      	lsls	r3, r3, #4
 80019e4:	d5f6      	bpl.n	80019d4 <HAL_RCCEx_PeriphCLKConfig+0x2b8>
 80019e6:	2d01      	cmp	r5, #1
 80019e8:	d00e      	beq.n	8001a08 <HAL_RCCEx_PeriphCLKConfig+0x2ec>
 80019ea:	2000      	movs	r0, #0
 80019ec:	b003      	add	sp, #12
 80019ee:	e8bd 83f0 	ldmia.w	sp!, {r4, r5, r6, r7, r8, r9, pc}
 80019f2:	490a      	ldr	r1, [pc, #40]	; (8001a1c <HAL_RCCEx_PeriphCLKConfig+0x300>)
 80019f4:	f8d4 0080 	ldr.w	r0, [r4, #128]	; 0x80
 80019f8:	f8d1 2090 	ldr.w	r2, [r1, #144]	; 0x90
 80019fc:	f022 5280 	bic.w	r2, r2, #268435456	; 0x10000000
 8001a00:	4302      	orrs	r2, r0
 8001a02:	f8c1 2090 	str.w	r2, [r1, #144]	; 0x90
 8001a06:	e789      	b.n	800191c <HAL_RCCEx_PeriphCLKConfig+0x200>
 8001a08:	4b04      	ldr	r3, [pc, #16]	; (8001a1c <HAL_RCCEx_PeriphCLKConfig+0x300>)
 8001a0a:	681a      	ldr	r2, [r3, #0]
 8001a0c:	461e      	mov	r6, r3
 8001a0e:	f022 5280 	bic.w	r2, r2, #268435456	; 0x10000000
 8001a12:	601a      	str	r2, [r3, #0]
 8001a14:	f7ff f854 	bl	8000ac0 <HAL_GetTick>
 8001a18:	4605      	mov	r5, r0
 8001a1a:	e006      	b.n	8001a2a <HAL_RCCEx_PeriphCLKConfig+0x30e>
 8001a1c:	40023800 	.word	0x40023800
 8001a20:	f7ff f84e 	bl	8000ac0 <HAL_GetTick>
 8001a24:	1b40      	subs	r0, r0, r5
 8001a26:	2864      	cmp	r0, #100	; 0x64
 8001a28:	d86c      	bhi.n	8001b04 <HAL_RCCEx_PeriphCLKConfig+0x3e8>
 8001a2a:	6833      	ldr	r3, [r6, #0]
 8001a2c:	009f      	lsls	r7, r3, #2
 8001a2e:	d4f7      	bmi.n	8001a20 <HAL_RCCEx_PeriphCLKConfig+0x304>
 8001a30:	6823      	ldr	r3, [r4, #0]
 8001a32:	031d      	lsls	r5, r3, #12
 8001a34:	f140 80fd 	bpl.w	8001c32 <HAL_RCCEx_PeriphCLKConfig+0x516>
 8001a38:	6be2      	ldr	r2, [r4, #60]	; 0x3c
 8001a3a:	2a00      	cmp	r2, #0
 8001a3c:	f040 80f9 	bne.w	8001c32 <HAL_RCCEx_PeriphCLKConfig+0x516>
 8001a40:	4980      	ldr	r1, [pc, #512]	; (8001c44 <HAL_RCCEx_PeriphCLKConfig+0x528>)
 8001a42:	6965      	ldr	r5, [r4, #20]
 8001a44:	f8d1 2088 	ldr.w	r2, [r1, #136]	; 0x88
 8001a48:	f8d1 6088 	ldr.w	r6, [r1, #136]	; 0x88
 8001a4c:	f402 3240 	and.w	r2, r2, #196608	; 0x30000
 8001a50:	69a0      	ldr	r0, [r4, #24]
 8001a52:	f006 46e0 	and.w	r6, r6, #1879048192	; 0x70000000
 8001a56:	4332      	orrs	r2, r6
 8001a58:	ea42 1285 	orr.w	r2, r2, r5, lsl #6
 8001a5c:	ea42 6200 	orr.w	r2, r2, r0, lsl #24
 8001a60:	f8c1 2088 	str.w	r2, [r1, #136]	; 0x88
 8001a64:	f8d1 208c 	ldr.w	r2, [r1, #140]	; 0x8c
 8001a68:	6aa0      	ldr	r0, [r4, #40]	; 0x28
 8001a6a:	f422 52f8 	bic.w	r2, r2, #7936	; 0x1f00
 8001a6e:	3801      	subs	r0, #1
 8001a70:	ea42 2200 	orr.w	r2, r2, r0, lsl #8
 8001a74:	f8c1 208c 	str.w	r2, [r1, #140]	; 0x8c
 8001a78:	0299      	lsls	r1, r3, #10
 8001a7a:	d515      	bpl.n	8001aa8 <HAL_RCCEx_PeriphCLKConfig+0x38c>
 8001a7c:	6fe2      	ldr	r2, [r4, #124]	; 0x7c
 8001a7e:	f1b2 6f00 	cmp.w	r2, #134217728	; 0x8000000
 8001a82:	d111      	bne.n	8001aa8 <HAL_RCCEx_PeriphCLKConfig+0x38c>
 8001a84:	496f      	ldr	r1, [pc, #444]	; (8001c44 <HAL_RCCEx_PeriphCLKConfig+0x528>)
 8001a86:	6965      	ldr	r5, [r4, #20]
 8001a88:	f8d1 2088 	ldr.w	r2, [r1, #136]	; 0x88
 8001a8c:	f8d1 6088 	ldr.w	r6, [r1, #136]	; 0x88
 8001a90:	f002 6270 	and.w	r2, r2, #251658240	; 0xf000000
 8001a94:	6a20      	ldr	r0, [r4, #32]
 8001a96:	f006 46e0 	and.w	r6, r6, #1879048192	; 0x70000000
 8001a9a:	4332      	orrs	r2, r6
 8001a9c:	ea42 1285 	orr.w	r2, r2, r5, lsl #6
 8001aa0:	ea42 4200 	orr.w	r2, r2, r0, lsl #16
 8001aa4:	f8c1 2088 	str.w	r2, [r1, #136]	; 0x88
 8001aa8:	071a      	lsls	r2, r3, #28
 8001aaa:	d519      	bpl.n	8001ae0 <HAL_RCCEx_PeriphCLKConfig+0x3c4>
 8001aac:	4a65      	ldr	r2, [pc, #404]	; (8001c44 <HAL_RCCEx_PeriphCLKConfig+0x528>)
 8001aae:	6965      	ldr	r5, [r4, #20]
 8001ab0:	f8d2 1088 	ldr.w	r1, [r2, #136]	; 0x88
 8001ab4:	f8d2 3088 	ldr.w	r3, [r2, #136]	; 0x88
 8001ab8:	f001 6170 	and.w	r1, r1, #251658240	; 0xf000000
 8001abc:	69e0      	ldr	r0, [r4, #28]
 8001abe:	f403 3340 	and.w	r3, r3, #196608	; 0x30000
 8001ac2:	430b      	orrs	r3, r1
 8001ac4:	ea43 1385 	orr.w	r3, r3, r5, lsl #6
 8001ac8:	ea43 7300 	orr.w	r3, r3, r0, lsl #28
 8001acc:	f8c2 3088 	str.w	r3, [r2, #136]	; 0x88
 8001ad0:	f8d2 308c 	ldr.w	r3, [r2, #140]	; 0x8c
 8001ad4:	6ae1      	ldr	r1, [r4, #44]	; 0x2c
 8001ad6:	f423 3340 	bic.w	r3, r3, #196608	; 0x30000
 8001ada:	430b      	orrs	r3, r1
 8001adc:	f8c2 308c 	str.w	r3, [r2, #140]	; 0x8c
 8001ae0:	4b58      	ldr	r3, [pc, #352]	; (8001c44 <HAL_RCCEx_PeriphCLKConfig+0x528>)
 8001ae2:	681a      	ldr	r2, [r3, #0]
 8001ae4:	461d      	mov	r5, r3
 8001ae6:	f042 5280 	orr.w	r2, r2, #268435456	; 0x10000000
 8001aea:	601a      	str	r2, [r3, #0]
 8001aec:	f7fe ffe8 	bl	8000ac0 <HAL_GetTick>
 8001af0:	4604      	mov	r4, r0
 8001af2:	682b      	ldr	r3, [r5, #0]
 8001af4:	009b      	lsls	r3, r3, #2
 8001af6:	f53f af78 	bmi.w	80019ea <HAL_RCCEx_PeriphCLKConfig+0x2ce>
 8001afa:	f7fe ffe1 	bl	8000ac0 <HAL_GetTick>
 8001afe:	1b00      	subs	r0, r0, r4
 8001b00:	2864      	cmp	r0, #100	; 0x64
 8001b02:	d9f6      	bls.n	8001af2 <HAL_RCCEx_PeriphCLKConfig+0x3d6>
 8001b04:	2003      	movs	r0, #3
 8001b06:	b003      	add	sp, #12
 8001b08:	e8bd 83f0 	ldmia.w	sp!, {r4, r5, r6, r7, r8, r9, pc}
 8001b0c:	4a4d      	ldr	r2, [pc, #308]	; (8001c44 <HAL_RCCEx_PeriphCLKConfig+0x528>)
 8001b0e:	4b4e      	ldr	r3, [pc, #312]	; (8001c48 <HAL_RCCEx_PeriphCLKConfig+0x52c>)
 8001b10:	6c11      	ldr	r1, [r2, #64]	; 0x40
 8001b12:	4698      	mov	r8, r3
 8001b14:	f041 5180 	orr.w	r1, r1, #268435456	; 0x10000000
 8001b18:	6411      	str	r1, [r2, #64]	; 0x40
 8001b1a:	6c12      	ldr	r2, [r2, #64]	; 0x40
 8001b1c:	f002 5280 	and.w	r2, r2, #268435456	; 0x10000000
 8001b20:	9201      	str	r2, [sp, #4]
 8001b22:	9a01      	ldr	r2, [sp, #4]
 8001b24:	681a      	ldr	r2, [r3, #0]
 8001b26:	f442 7280 	orr.w	r2, r2, #256	; 0x100
 8001b2a:	601a      	str	r2, [r3, #0]
 8001b2c:	f7fe ffc8 	bl	8000ac0 <HAL_GetTick>
 8001b30:	4607      	mov	r7, r0
 8001b32:	e004      	b.n	8001b3e <HAL_RCCEx_PeriphCLKConfig+0x422>
 8001b34:	f7fe ffc4 	bl	8000ac0 <HAL_GetTick>
 8001b38:	1bc0      	subs	r0, r0, r7
 8001b3a:	2864      	cmp	r0, #100	; 0x64
 8001b3c:	d8e2      	bhi.n	8001b04 <HAL_RCCEx_PeriphCLKConfig+0x3e8>
 8001b3e:	f8d8 3000 	ldr.w	r3, [r8]
 8001b42:	05d9      	lsls	r1, r3, #23
 8001b44:	d5f6      	bpl.n	8001b34 <HAL_RCCEx_PeriphCLKConfig+0x418>
 8001b46:	4f3f      	ldr	r7, [pc, #252]	; (8001c44 <HAL_RCCEx_PeriphCLKConfig+0x528>)
 8001b48:	6b23      	ldr	r3, [r4, #48]	; 0x30
 8001b4a:	6f3a      	ldr	r2, [r7, #112]	; 0x70
 8001b4c:	f403 7140 	and.w	r1, r3, #768	; 0x300
 8001b50:	f412 7240 	ands.w	r2, r2, #768	; 0x300
 8001b54:	d010      	beq.n	8001b78 <HAL_RCCEx_PeriphCLKConfig+0x45c>
 8001b56:	4291      	cmp	r1, r2
 8001b58:	d00e      	beq.n	8001b78 <HAL_RCCEx_PeriphCLKConfig+0x45c>
 8001b5a:	6f3a      	ldr	r2, [r7, #112]	; 0x70
 8001b5c:	6f38      	ldr	r0, [r7, #112]	; 0x70
 8001b5e:	f422 7240 	bic.w	r2, r2, #768	; 0x300
 8001b62:	f440 3080 	orr.w	r0, r0, #65536	; 0x10000
 8001b66:	6738      	str	r0, [r7, #112]	; 0x70
 8001b68:	6f38      	ldr	r0, [r7, #112]	; 0x70
 8001b6a:	f420 3080 	bic.w	r0, r0, #65536	; 0x10000
 8001b6e:	6738      	str	r0, [r7, #112]	; 0x70
 8001b70:	673a      	str	r2, [r7, #112]	; 0x70
 8001b72:	6f3a      	ldr	r2, [r7, #112]	; 0x70
 8001b74:	07d2      	lsls	r2, r2, #31
 8001b76:	d448      	bmi.n	8001c0a <HAL_RCCEx_PeriphCLKConfig+0x4ee>
 8001b78:	f5b1 7f40 	cmp.w	r1, #768	; 0x300
 8001b7c:	d03c      	beq.n	8001bf8 <HAL_RCCEx_PeriphCLKConfig+0x4dc>
 8001b7e:	4931      	ldr	r1, [pc, #196]	; (8001c44 <HAL_RCCEx_PeriphCLKConfig+0x528>)
 8001b80:	688a      	ldr	r2, [r1, #8]
 8001b82:	f422 12f8 	bic.w	r2, r2, #2031616	; 0x1f0000
 8001b86:	608a      	str	r2, [r1, #8]
 8001b88:	4a2e      	ldr	r2, [pc, #184]	; (8001c44 <HAL_RCCEx_PeriphCLKConfig+0x528>)
 8001b8a:	f3c3 030b 	ubfx	r3, r3, #0, #12
 8001b8e:	6f11      	ldr	r1, [r2, #112]	; 0x70
 8001b90:	430b      	orrs	r3, r1
 8001b92:	6713      	str	r3, [r2, #112]	; 0x70
 8001b94:	6823      	ldr	r3, [r4, #0]
 8001b96:	e603      	b.n	80017a0 <HAL_RCCEx_PeriphCLKConfig+0x84>
 8001b98:	2500      	movs	r5, #0
 8001b9a:	2601      	movs	r6, #1
 8001b9c:	e5e6      	b.n	800176c <HAL_RCCEx_PeriphCLKConfig+0x50>
 8001b9e:	2601      	movs	r6, #1
 8001ba0:	e5f7      	b.n	8001792 <HAL_RCCEx_PeriphCLKConfig+0x76>
 8001ba2:	6923      	ldr	r3, [r4, #16]
 8001ba4:	6862      	ldr	r2, [r4, #4]
 8001ba6:	041b      	lsls	r3, r3, #16
 8001ba8:	e9d4 1002 	ldrd	r1, r0, [r4, #8]
 8001bac:	ea43 1382 	orr.w	r3, r3, r2, lsl #6
 8001bb0:	4a24      	ldr	r2, [pc, #144]	; (8001c44 <HAL_RCCEx_PeriphCLKConfig+0x528>)
 8001bb2:	ea43 6300 	orr.w	r3, r3, r0, lsl #24
 8001bb6:	ea43 7301 	orr.w	r3, r3, r1, lsl #28
 8001bba:	f8c2 3084 	str.w	r3, [r2, #132]	; 0x84
 8001bbe:	e6ff      	b.n	80019c0 <HAL_RCCEx_PeriphCLKConfig+0x2a4>
 8001bc0:	4e20      	ldr	r6, [pc, #128]	; (8001c44 <HAL_RCCEx_PeriphCLKConfig+0x528>)
 8001bc2:	6860      	ldr	r0, [r4, #4]
 8001bc4:	f8d6 2084 	ldr.w	r2, [r6, #132]	; 0x84
 8001bc8:	f8d6 7084 	ldr.w	r7, [r6, #132]	; 0x84
 8001bcc:	f402 3240 	and.w	r2, r2, #196608	; 0x30000
 8001bd0:	68e1      	ldr	r1, [r4, #12]
 8001bd2:	f007 47e0 	and.w	r7, r7, #1879048192	; 0x70000000
 8001bd6:	433a      	orrs	r2, r7
 8001bd8:	ea42 1280 	orr.w	r2, r2, r0, lsl #6
 8001bdc:	ea42 6201 	orr.w	r2, r2, r1, lsl #24
 8001be0:	f8c6 2084 	str.w	r2, [r6, #132]	; 0x84
 8001be4:	f8d6 108c 	ldr.w	r1, [r6, #140]	; 0x8c
 8001be8:	6a62      	ldr	r2, [r4, #36]	; 0x24
 8001bea:	f021 011f 	bic.w	r1, r1, #31
 8001bee:	3a01      	subs	r2, #1
 8001bf0:	430a      	orrs	r2, r1
 8001bf2:	f8c6 208c 	str.w	r2, [r6, #140]	; 0x8c
 8001bf6:	e6cc      	b.n	8001992 <HAL_RCCEx_PeriphCLKConfig+0x276>
 8001bf8:	4812      	ldr	r0, [pc, #72]	; (8001c44 <HAL_RCCEx_PeriphCLKConfig+0x528>)
 8001bfa:	4914      	ldr	r1, [pc, #80]	; (8001c4c <HAL_RCCEx_PeriphCLKConfig+0x530>)
 8001bfc:	6882      	ldr	r2, [r0, #8]
 8001bfe:	4019      	ands	r1, r3
 8001c00:	f422 12f8 	bic.w	r2, r2, #2031616	; 0x1f0000
 8001c04:	430a      	orrs	r2, r1
 8001c06:	6082      	str	r2, [r0, #8]
 8001c08:	e7be      	b.n	8001b88 <HAL_RCCEx_PeriphCLKConfig+0x46c>
 8001c0a:	f7fe ff59 	bl	8000ac0 <HAL_GetTick>
 8001c0e:	f241 3988 	movw	r9, #5000	; 0x1388
 8001c12:	4680      	mov	r8, r0
 8001c14:	e006      	b.n	8001c24 <HAL_RCCEx_PeriphCLKConfig+0x508>
 8001c16:	f7fe ff53 	bl	8000ac0 <HAL_GetTick>
 8001c1a:	eba0 0008 	sub.w	r0, r0, r8
 8001c1e:	4548      	cmp	r0, r9
 8001c20:	f63f af70 	bhi.w	8001b04 <HAL_RCCEx_PeriphCLKConfig+0x3e8>
 8001c24:	6f3b      	ldr	r3, [r7, #112]	; 0x70
 8001c26:	079b      	lsls	r3, r3, #30
 8001c28:	d5f5      	bpl.n	8001c16 <HAL_RCCEx_PeriphCLKConfig+0x4fa>
 8001c2a:	6b23      	ldr	r3, [r4, #48]	; 0x30
 8001c2c:	f403 7140 	and.w	r1, r3, #768	; 0x300
 8001c30:	e7a2      	b.n	8001b78 <HAL_RCCEx_PeriphCLKConfig+0x45c>
 8001c32:	02d8      	lsls	r0, r3, #11
 8001c34:	f57f af20 	bpl.w	8001a78 <HAL_RCCEx_PeriphCLKConfig+0x35c>
 8001c38:	6c22      	ldr	r2, [r4, #64]	; 0x40
 8001c3a:	2a00      	cmp	r2, #0
 8001c3c:	f47f af1c 	bne.w	8001a78 <HAL_RCCEx_PeriphCLKConfig+0x35c>
 8001c40:	e6fe      	b.n	8001a40 <HAL_RCCEx_PeriphCLKConfig+0x324>
 8001c42:	bf00      	nop
 8001c44:	40023800 	.word	0x40023800
 8001c48:	40007000 	.word	0x40007000
 8001c4c:	0ffffcff 	.word	0x0ffffcff

08001c50 <HAL_RNG_Init>:
 8001c50:	b1b0      	cbz	r0, 8001c80 <HAL_RNG_Init+0x30>
 8001c52:	b538      	push	{r3, r4, r5, lr}
 8001c54:	7943      	ldrb	r3, [r0, #5]
 8001c56:	4604      	mov	r4, r0
 8001c58:	f003 02ff 	and.w	r2, r3, #255	; 0xff
 8001c5c:	b163      	cbz	r3, 8001c78 <HAL_RNG_Init+0x28>
 8001c5e:	6821      	ldr	r1, [r4, #0]
 8001c60:	2302      	movs	r3, #2
 8001c62:	2200      	movs	r2, #0
 8001c64:	2501      	movs	r5, #1
 8001c66:	7163      	strb	r3, [r4, #5]
 8001c68:	680b      	ldr	r3, [r1, #0]
 8001c6a:	4610      	mov	r0, r2
 8001c6c:	f043 0304 	orr.w	r3, r3, #4
 8001c70:	600b      	str	r3, [r1, #0]
 8001c72:	7165      	strb	r5, [r4, #5]
 8001c74:	60a2      	str	r2, [r4, #8]
 8001c76:	bd38      	pop	{r3, r4, r5, pc}
 8001c78:	7102      	strb	r2, [r0, #4]
 8001c7a:	f7fe fe89 	bl	8000990 <HAL_RNG_MspInit>
 8001c7e:	e7ee      	b.n	8001c5e <HAL_RNG_Init+0xe>
 8001c80:	2001      	movs	r0, #1
 8001c82:	4770      	bx	lr

08001c84 <__libc_init_array>:
 8001c84:	b570      	push	{r4, r5, r6, lr}
 8001c86:	4d0d      	ldr	r5, [pc, #52]	; (8001cbc <__libc_init_array+0x38>)
 8001c88:	4c0d      	ldr	r4, [pc, #52]	; (8001cc0 <__libc_init_array+0x3c>)
 8001c8a:	1b64      	subs	r4, r4, r5
 8001c8c:	10a4      	asrs	r4, r4, #2
 8001c8e:	2600      	movs	r6, #0
 8001c90:	42a6      	cmp	r6, r4
 8001c92:	d109      	bne.n	8001ca8 <__libc_init_array+0x24>
 8001c94:	4d0b      	ldr	r5, [pc, #44]	; (8001cc4 <__libc_init_array+0x40>)
 8001c96:	4c0c      	ldr	r4, [pc, #48]	; (8001cc8 <__libc_init_array+0x44>)
 8001c98:	f000 f820 	bl	8001cdc <_init>
 8001c9c:	1b64      	subs	r4, r4, r5
 8001c9e:	10a4      	asrs	r4, r4, #2
 8001ca0:	2600      	movs	r6, #0
 8001ca2:	42a6      	cmp	r6, r4
 8001ca4:	d105      	bne.n	8001cb2 <__libc_init_array+0x2e>
 8001ca6:	bd70      	pop	{r4, r5, r6, pc}
 8001ca8:	f855 3b04 	ldr.w	r3, [r5], #4
 8001cac:	4798      	blx	r3
 8001cae:	3601      	adds	r6, #1
 8001cb0:	e7ee      	b.n	8001c90 <__libc_init_array+0xc>
 8001cb2:	f855 3b04 	ldr.w	r3, [r5], #4
 8001cb6:	4798      	blx	r3
 8001cb8:	3601      	adds	r6, #1
 8001cba:	e7f2      	b.n	8001ca2 <__libc_init_array+0x1e>
 8001cbc:	08001d0c 	.word	0x08001d0c
 8001cc0:	08001d0c 	.word	0x08001d0c
 8001cc4:	08001d0c 	.word	0x08001d0c
 8001cc8:	08001d10 	.word	0x08001d10

08001ccc <memset>:
 8001ccc:	4402      	add	r2, r0
 8001cce:	4603      	mov	r3, r0
 8001cd0:	4293      	cmp	r3, r2
 8001cd2:	d100      	bne.n	8001cd6 <memset+0xa>
 8001cd4:	4770      	bx	lr
 8001cd6:	f803 1b01 	strb.w	r1, [r3], #1
 8001cda:	e7f9      	b.n	8001cd0 <memset+0x4>

08001cdc <_init>:
 8001cdc:	b5f8      	push	{r3, r4, r5, r6, r7, lr}
 8001cde:	bf00      	nop
 8001ce0:	bcf8      	pop	{r3, r4, r5, r6, r7}
 8001ce2:	bc08      	pop	{r3}
 8001ce4:	469e      	mov	lr, r3
 8001ce6:	4770      	bx	lr

08001ce8 <_fini>:
 8001ce8:	b5f8      	push	{r3, r4, r5, r6, r7, lr}
 8001cea:	bf00      	nop
 8001cec:	bcf8      	pop	{r3, r4, r5, r6, r7}
 8001cee:	bc08      	pop	{r3}
 8001cf0:	469e      	mov	lr, r3
 8001cf2:	4770      	bx	lr
